(iac.cc.results
Projects
p0
(dp1
S'job_name'
p2
S'vicon-ros'
p3
sS'projects'
p4
(lp5
(iac.cc.results
Project
p6
(dp7
S'branches'
p8
(dp9
sS'name'
p10
S'VICON-ROS'
p11
sS'trace'
p12
S''
p13
sS'testing_error'
p14
g13
sS'catkin_packages'
p15
(lp16
(iac.cc.results
Catkin_package
p17
(dp18
S'doxygen'
p19
Nsg10
S'xenomai_ros'
p20
sS'unit_tests'
p21
(lp22
sS'demos'
p23
(lp24
sS'id'
p25
S'catkin_package_36194640'
p26
sS'unit_tests_errors'
p27
Nsba(iac.cc.results
Catkin_package
p28
(dp29
g19
Nsg10
S'catkin'
p30
sg21
(lp31
sg23
(lp32
sg25
S'catkin_package_37241056'
p33
sg27
Nsba(iac.cc.results
Catkin_package
p34
(dp35
g19
Nsg10
S'ros_realtime'
p36
sg21
(lp37
sg23
(lp38
sg25
S'catkin_package_37210232'
p39
sg27
Nsba(iac.cc.results
Catkin_package
p40
(dp41
g19
Nsg10
S'vicon_subscriber'
p42
sg21
(lp43
sg23
(lp44
(iac.cc.results
Demo
p45
(dp46
g10
S'running_vicon_object_demo'
p47
sS'success'
p48
I00
sS'out'
p49
S'failed to run demo (exception thrown). command: \n\n/bin/bash /home/amd_clmc/team/workspace/tmp_run_demo.sh\n\nerror message:\n\ntimeout exception raised after 60 seconds\n\ncontent of sh script:\n#!/bin/bash\nsource /home/amd_clmc/team/workspace/devel/setup.bash\ncd /home/amd_clmc/team/workspace/src/catkin/perception/vicon_subscriber/demos/\nchmod +x running_vicon_object_demo\n./running_vicon_object_demo /home/amd_clmc/team/workspace/devel\n'
p50
sbasg25
S'catkin_package_35688032'
p51
sg27
Nsba(iac.cc.results
Catkin_package
p52
(dp53
g19
Nsg10
S'vicon_bridge'
p54
sg21
(lp55
sg23
(lp56
sg25
S'catkin_package_37292224'
p57
sg27
Nsba(iac.cc.results
Catkin_package
p58
(dp59
g19
Nsg10
S'lockfree'
p60
sg21
(lp61
(iac.cc.results
Unit_tests
p62
(dp63
S'nb_failures'
p64
I0
sS'error'
p65
Nsg10
S'gtest-test_freelist.xml'
p66
sS'nb_tests'
p67
I4
sS'testsuits'
p68
(dp69
S'FreeList'
p70
(iac.cc.results
TestSuit
p71
(dp72
g64
I0
sS'testcases'
p73
(dp74
S'multipleThreads'
p75
(iac.cc.results
TestCase
p76
(dp77
S'failure'
p78
Nsg10
g75
sS'time'
p79
F10.009
sbsS'hasOutstandingAllocations'
p80
(iac.cc.results
TestCase
p81
(dp82
g78
Nsg10
g80
sg79
F0.0
sbsS'oneElement'
p83
(iac.cc.results
TestCase
p84
(dp85
g78
Nsg10
g83
sg79
F0.0
sbsS'multipleElements'
p86
(iac.cc.results
TestCase
p87
(dp88
g78
Nsg10
g86
sg79
F0.0
sbssg10
g70
sg67
I4
sbssba(iac.cc.results
Unit_tests
p89
(dp90
g64
I0
sg65
Nsg10
S'gtest-test_object_pool.xml'
p91
sg67
I2
sg68
(dp92
S'ObjectPool'
p93
(iac.cc.results
TestSuit
p94
(dp95
g64
I0
sg73
(dp96
S'oneElement'
p97
(iac.cc.results
TestCase
p98
(dp99
g78
Nsg10
g97
sg79
F0.0
sbsS'multipleElements'
p100
(iac.cc.results
TestCase
p101
(dp102
g78
Nsg10
g100
sg79
F0.0
sbssg10
g93
sg67
I2
sbssbasg23
(lp103
sg25
S'catkin_package_37275768'
p104
sg27
Nsba(iac.cc.results
Catkin_package
p105
(dp106
g19
Nsg10
S'rosatomic'
p107
sg21
(lp108
(iac.cc.results
Unit_tests
p109
(dp110
g64
I0
sg65
Nsg10
S'gtest-utest.xml'
p111
sg67
I1
sg68
(dp112
S'Atomic'
p113
(iac.cc.results
TestSuit
p114
(dp115
g64
I0
sg73
(dp116
S'all'
p117
(iac.cc.results
TestCase
p118
(dp119
g78
Nsg10
g117
sg79
F0.0
sbssg10
g113
sg67
I1
sbssbasg23
(lp120
sg25
S'catkin_package_37279216'
p121
sg27
Nsba(iac.cc.results
Catkin_package
p122
(dp123
g19
Nsg10
S'rt_timer'
p124
sg21
(lp125
sg23
(lp126
sg25
S'catkin_package_37181704'
p127
sg27
Nsba(iac.cc.results
Catkin_package
p128
(dp129
g19
Nsg10
S'ros_rt_test'
p130
sg21
(lp131
sg23
(lp132
sg25
S'catkin_package_37250688'
p133
sg27
Nsba(iac.cc.results
Catkin_package
p134
(dp135
g19
Nsg10
S'allocators'
p136
sg21
(lp137
(iac.cc.results
Unit_tests
p138
(dp139
g64
I0
sg65
Nsg10
S'gtest-test_aligned_alloc.xml'
p140
sg67
I2
sg68
(dp141
S'AlignedAlloc'
p142
(iac.cc.results
TestSuit
p143
(dp144
g64
I0
sg73
(dp145
S'mallocfree'
p146
(iac.cc.results
TestCase
p147
(dp148
g78
Nsg10
g146
sg79
F0.009
sbsS'stlAllocator'
p149
(iac.cc.results
TestCase
p150
(dp151
g78
Nsg10
g149
sg79
F6.805
sbssg10
g142
sg67
I2
sbssbasg23
(lp152
sg25
S'catkin_package_37226328'
p153
sg27
Nsba(iac.cc.results
Catkin_package
p154
(dp155
g19
Nsg10
S'rosrt'
p156
sg21
(lp157
sg23
(lp158
sg25
S'catkin_package_37225320'
p159
sg27
NsbasS'build_message'
p160
S'COMMAND:catkin_make -j install\n------------------------------\n-- The C compiler identification is GNU\n-- The CXX compiler identification is GNU\n-- Check for working C compiler: /usr/bin/gcc\n-- Check for working C compiler: /usr/bin/gcc -- works\n-- Detecting C compiler ABI info\n-- Detecting C compiler ABI info - done\n-- Check for working CXX compiler: /usr/bin/c++\n-- Check for working CXX compiler: /usr/bin/c++ -- works\n-- Detecting CXX compiler ABI info\n-- Detecting CXX compiler ABI info - done\n-- Using CATKIN_DEVEL_PREFIX: /home/amd_clmc/team/workspace/devel\n-- Using CMAKE_PREFIX_PATH: /opt/ros/groovy\n-- This workspace overlays: /opt/ros/groovy\n-- Found PythonInterp: /usr/bin/python (found version "2.7.3")\n-- Using PYTHON_EXECUTABLE: /usr/bin/python\n-- Python version: 2.7\n-- Using Debian Python package layout\n-- Using CATKIN_ENABLE_TESTING: ON\n-- Call enable_testing()\n-- Using CATKIN_TEST_RESULTS_DIR: /home/amd_clmc/team/workspace/build/test_results\n-- Looking for include files CMAKE_HAVE_PTHREAD_H\n-- Looking for include files CMAKE_HAVE_PTHREAD_H - found\n-- Looking for pthread_create in pthreads\n-- Looking for pthread_create in pthreads - not found\n-- Looking for pthread_create in pthread\n-- Looking for pthread_create in pthread - found\n-- Found Threads: TRUE \n-- Found gtest sources under \'/usr/src/gtest\': gtests will be built\n-- catkin 0.5.90\n-- BUILD_SHARED_LIBS is on\n-- ~~~~~~~~~~~~~~~~~~~~~~~~~~~~~~~~~~~~~~~~~~~~~~~~~\n-- ~~  traversing 10 packages in topological order:\n-- ~~  - ros_realtime (metapackage)\n-- ~~  - allocators\n-- ~~  - rosatomic\n-- ~~  - lockfree\n-- ~~  - rt_timer\n-- ~~  - xenomai_ros\n-- ~~  - rosrt\n-- ~~  - ros_rt_test\n-- ~~  - vicon_bridge\n-- ~~  - vicon_subscriber\n-- ~~~~~~~~~~~~~~~~~~~~~~~~~~~~~~~~~~~~~~~~~~~~~~~~~\n-- +++ processing catkin metapackage: \'ros_realtime\'\n-- ==> add_subdirectory(catkin/ros/ros_realtime/ros_realtime)\n-- +++ processing catkin package: \'allocators\'\n-- ==> add_subdirectory(catkin/ros/ros_realtime/allocators)\n-- Boost version: 1.46.1\n-- +++ processing catkin package: \'rosatomic\'\n-- ==> add_subdirectory(catkin/ros/ros_realtime/rosatomic)\n-- +++ processing catkin package: \'lockfree\'\n-- ==> add_subdirectory(catkin/ros/ros_realtime/lockfree)\n-- +++ processing catkin package: \'rt_timer\'\n-- ==> add_subdirectory(catkin/ros/ros_realtime/rt_timer)\n-- +++ processing catkin package: \'xenomai_ros\'\n-- ==> add_subdirectory(catkin/ros/xenomai-ros)\n-- +++ processing catkin package: \'rosrt\'\n-- ==> add_subdirectory(catkin/ros/ros_realtime/rosrt)\n-- xenomai NOT found. (/usr/local;/usr)\n-- Could NOT find Xenomai (missing:  Xenomai_ROOT_DIR Xenomai_LIBRARY_NATIVE Xenomai_LIBRARY_XENOMAI Xenomai_LIBRARY_PTHREAD_RT Xenomai_LIBRARY_RTDM Xenomai_VERSION Xenomai_LIBRARY_RTDK) \n-- Boost version: 1.46.1\n-- Found the following Boost libraries:\n--   thread\n-- +++ processing catkin package: \'ros_rt_test\'\n-- ==> add_subdirectory(catkin/ros/ros_rt_basic_example)\n-- xenomai NOT found. (/usr/local;/usr)\n-- Could NOT find Xenomai (missing:  Xenomai_ROOT_DIR Xenomai_LIBRARY_NATIVE Xenomai_LIBRARY_XENOMAI Xenomai_LIBRARY_PTHREAD_RT Xenomai_LIBRARY_RTDM Xenomai_VERSION Xenomai_LIBRARY_RTDK) \n-- +++ processing catkin package: \'vicon_bridge\'\n-- ==> add_subdirectory(catkin/perception/vicon_bridge)\n-- Using these message generators: gencpp;genlisp;genpy\n-- vicon_bridge: 3 messages, 2 services\n-- +++ processing catkin package: \'vicon_subscriber\'\n-- ==> add_subdirectory(catkin/perception/vicon_subscriber)\n-- Configuring done\n-- Generating done\n-- Build files have been written to: /home/amd_clmc/team/workspace/build\nScanning dependencies of target vicon_bridge_gencfg\nScanning dependencies of target geometry_msgs_generate_messages_py\nScanning dependencies of target geometry_msgs_generate_messages_cpp\nScanning dependencies of target geometry_msgs_generate_messages_lisp\nScanning dependencies of target testclient\nScanning dependencies of target msvc_bridge\n[  2%] [  2%] [  2%] [  2%] Built target geometry_msgs_generate_messages_py\nBuilt target geometry_msgs_generate_messages_lisp\nBuilt target geometry_msgs_generate_messages_cpp\n[  5%] [  8%] Scanning dependencies of target lockfree\nGenerating dynamic reconfigure files from cfg/tf_distort.cfg: /home/amd_clmc/team/workspace/devel/include/vicon_bridge/tf_distortConfig.h /home/amd_clmc/team/workspace/devel/lib/python2.7/dist-packages/vicon_bridge/cfg/tf_distortConfig.py\nBuilding CXX object catkin/perception/vicon_bridge/CMakeFiles/msvc_bridge.dir/src/msvc_bridge.cpp.o\nBuilding CXX object catkin/perception/vicon_bridge/CMakeFiles/testclient.dir/src/ViconDataStreamSDK_CPPTest.cpp.o\nScanning dependencies of target vicon_bridge_generate_messages_py\nScanning dependencies of target vicon_bridge_generate_messages_lisp\nScanning dependencies of target vicon_bridge_generate_messages_cpp\n[ 11%] [ 14%] [ 17%] [ 20%] [ 26%] [ 26%] [ 29%] [ 32%] [ 35%] Building CXX object catkin/ros/ros_realtime/lockfree/CMakeFiles/lockfree.dir/src/free_list.cpp.o\n[ 47%] [ 44%] [ 52%] [ 52%] [ 55%] [ 55%] [ 55%] Generating Lisp code from vicon_bridge/Markers.msg\nGenerating C++ code from vicon_bridge/Marker.msg\nGenerating C++ code from vicon_bridge/Markers.msg\nGenerating Python from MSG vicon_bridge/Marker\nGenerating Python from MSG vicon_bridge/TfDistortInfo\nGenerating Python from MSG vicon_bridge/Markers\nGenerating Lisp code from vicon_bridge/viconCalibrateSegment.srv\nGenerating Lisp code from vicon_bridge/TfDistortInfo.msg\nGenerating C++ code from vicon_bridge/viconCalibrateSegment.srv\nGenerating C++ code from vicon_bridge/TfDistortInfo.msg\nGenerating Python code from SRV vicon_bridge/viconCalibrateSegment\nGenerating C++ code from vicon_bridge/viconGrabPose.srv\nGenerating Lisp code from vicon_bridge/viconGrabPose.srv\nGenerating Python code from SRV vicon_bridge/viconGrabPose\nGenerating Lisp code from vicon_bridge/Marker.msg\nScanning dependencies of target vicon_subscriber\n[ 58%] Building CXX object catkin/perception/vicon_subscriber/CMakeFiles/vicon_subscriber.dir/src/vicon_object.cpp.o\n[ 61%] [ 64%] Linking CXX shared library /home/amd_clmc/team/workspace/devel/lib/libmsvc_bridge.so\nGenerating Python msg __init__.py for vicon_bridge\nGenerating Python srv __init__.py for vicon_bridge\n[ 64%] Built target vicon_bridge_generate_messages_lisp\n[ 64%] Built target msvc_bridge\n[ 64%] Built target vicon_bridge_generate_messages_py\nLinking CXX executable /home/amd_clmc/team/workspace/devel/lib/vicon_bridge/testclient\n[ 64%] Built target vicon_bridge_generate_messages_cpp\nScanning dependencies of target vicon_bridge_gencpp\nScanning dependencies of target vicon_bridge_generate_messages\n[ 64%] Built target vicon_bridge_gencpp\n[ 64%] Built target vicon_bridge_generate_messages\n[ 64%] Built target testclient\nScanning dependencies of target calibrate\n[ 67%] Building CXX object catkin/perception/vicon_bridge/CMakeFiles/calibrate.dir/src/calibrate_segment.cpp.o\nScanning dependencies of target vicon_bridge\n[ 70%] Building CXX object catkin/perception/vicon_bridge/CMakeFiles/vicon_bridge.dir/src/vicon_bridge.cpp.o\nGenerating reconfiguration files for tf_distort in vicon_bridge\nWrote header file in /home/amd_clmc/team/workspace/devel/include/vicon_bridge/tf_distortConfig.h\n[ 70%] Built target vicon_bridge_gencfg\nScanning dependencies of target tf_distort\n[ 73%] Building CXX object catkin/perception/vicon_bridge/CMakeFiles/tf_distort.dir/src/tf_distort.cpp.o\nLinking CXX shared library /home/amd_clmc/team/workspace/devel/lib/liblockfree.so\n[ 73%] Built target lockfree\nScanning dependencies of target rosrt\n[ 79%] [ 79%] [ 82%] [ 85%] [ 88%] Building CXX object catkin/ros/ros_realtime/rosrt/CMakeFiles/rosrt.dir/src/init.cpp.o\nBuilding CXX object catkin/ros/ros_realtime/rosrt/CMakeFiles/rosrt.dir/src/malloc.cpp.o\nBuilding CXX object catkin/ros/ros_realtime/rosrt/CMakeFiles/rosrt.dir/src/publisher.cpp.o\nBuilding CXX object catkin/ros/ros_realtime/rosrt/CMakeFiles/rosrt.dir/src/simple_gc.cpp.o\nBuilding CXX object catkin/ros/ros_realtime/rosrt/CMakeFiles/rosrt.dir/src/subscriber.cpp.o\nLinking CXX executable /home/amd_clmc/team/workspace/devel/lib/vicon_bridge/calibrate\n[ 88%] Built target calibrate\nLinking CXX shared library /home/amd_clmc/team/workspace/devel/lib/librosrt.so\n[ 88%] Built target rosrt\nScanning dependencies of target ros_rt_test_subscriber\nScanning dependencies of target ros_rt_test_publisher\n[ 94%] [ 94%] Building CXX object catkin/ros/ros_rt_basic_example/CMakeFiles/ros_rt_test_subscriber.dir/src/ros_rt_test_subscriber.cpp.o\nBuilding CXX object catkin/ros/ros_rt_basic_example/CMakeFiles/ros_rt_test_publisher.dir/src/ros_rt_test_publisher.cpp.o\nLinking CXX shared library /home/amd_clmc/team/workspace/devel/lib/libvicon_subscriber.so\n[ 94%] Built target vicon_subscriber\nScanning dependencies of target vicon_object_sh\nScanning dependencies of target vicon_subscriber_console\n[100%] [100%] Building CXX object catkin/perception/vicon_subscriber/CMakeFiles/vicon_object_sh.dir/src/vicon_object_sh.cpp.o\nBuilding CXX object catkin/perception/vicon_subscriber/CMakeFiles/vicon_subscriber_console.dir/src/vicon_subscriber_console.cpp.o\nLinking CXX executable /home/amd_clmc/team/workspace/devel/lib/ros_rt_test/ros_rt_test_publisher\nLinking CXX executable /home/amd_clmc/team/workspace/devel/lib/ros_rt_test/ros_rt_test_subscriber\n[100%] Built target ros_rt_test_publisher\nLinking CXX executable /home/amd_clmc/team/workspace/devel/lib/vicon_bridge/vicon_bridge\n[100%] Built target ros_rt_test_subscriber\n[100%] Built target vicon_bridge\nLinking CXX executable /home/amd_clmc/team/workspace/devel/lib/vicon_bridge/tf_distort\n[100%] Built target tf_distort\nLinking CXX executable /home/amd_clmc/team/workspace/devel/lib/vicon_subscriber/vicon_object_sh\n[100%] Built target vicon_object_sh\nLinking CXX executable /home/amd_clmc/team/workspace/devel/lib/vicon_subscriber/vicon_subscriber_console\n[100%] Built target vicon_subscriber_console\nInstall the project...\n-- Install configuration: ""\n-- Installing: /home/amd_clmc/team/workspace/install/_setup_util.py\n-- Installing: /home/amd_clmc/team/workspace/install/env.sh\n-- Installing: /home/amd_clmc/team/workspace/install/setup.bash\n-- Installing: /home/amd_clmc/team/workspace/install/setup.sh\n-- Installing: /home/amd_clmc/team/workspace/install/setup.zsh\n-- Installing: /home/amd_clmc/team/workspace/install/.rosinstall\n-- Installing: /home/amd_clmc/team/workspace/install/etc/catkin/profile.d/05.catkin_make.bash\n-- Installing: /home/amd_clmc/team/workspace/install/etc/catkin/profile.d/05.catkin_make_isolated.bash\n-- Installing: /home/amd_clmc/team/workspace/install/lib/pkgconfig/catkin.pc\n-- Installing: /home/amd_clmc/team/workspace/install/share/catkin/cmake/catkinConfig.cmake\n-- Installing: /home/amd_clmc/team/workspace/install/share/catkin/cmake/catkinConfig-version.cmake\n-- Installing: /home/amd_clmc/team/workspace/install/share/catkin/package.xml\n-- Installing: /home/amd_clmc/team/workspace/install/share/catkin/LICENSE\n-- Installing: /home/amd_clmc/team/workspace/install/share/eigen/cmake/eigen-config.cmake\n-- Installing: /home/amd_clmc/team/workspace/install/share/eigen/cmake/eigen-config-version.cmake\n-- Installing: /home/amd_clmc/team/workspace/install/share/catkin/cmake\n-- Installing: /home/amd_clmc/team/workspace/install/share/catkin/cmake/em_expand.cmake\n-- Installing: /home/amd_clmc/team/workspace/install/share/catkin/cmake/list_append_deduplicate.cmake\n-- Installing: /home/amd_clmc/team/workspace/install/share/catkin/cmake/interrogate_setup_dot_py.py\n-- Installing: /home/amd_clmc/team/workspace/install/share/catkin/cmake/test\n-- Installing: /home/amd_clmc/team/workspace/install/share/catkin/cmake/test/nosetests.cmake\n-- Installing: /home/amd_clmc/team/workspace/install/share/catkin/cmake/test/run_tests.py\n-- Installing: /home/amd_clmc/team/workspace/install/share/catkin/cmake/test/tests.cmake\n-- Installing: /home/amd_clmc/team/workspace/install/share/catkin/cmake/test/catkin_download_test_data.cmake\n-- Installing: /home/amd_clmc/team/workspace/install/share/catkin/cmake/test/download_checkmd5.py\n-- Installing: /home/amd_clmc/team/workspace/install/share/catkin/cmake/test/download_test_data.cmake\n-- Installing: /home/amd_clmc/team/workspace/install/share/catkin/cmake/test/gtest.cmake\n-- Installing: /home/amd_clmc/team/workspace/install/share/catkin/cmake/catkin_add_env_hooks.cmake\n-- Installing: /home/amd_clmc/team/workspace/install/share/catkin/cmake/safe_execute_process.cmake\n-- Installing: /home/amd_clmc/team/workspace/install/share/catkin/cmake/platform\n-- Installing: /home/amd_clmc/team/workspace/install/share/catkin/cmake/platform/lsb.cmake\n-- Installing: /home/amd_clmc/team/workspace/install/share/catkin/cmake/platform/windows.cmake\n-- Installing: /home/amd_clmc/team/workspace/install/share/catkin/cmake/platform/ubuntu.cmake\n-- Installing: /home/amd_clmc/team/workspace/install/share/catkin/cmake/tools\n-- Installing: /home/amd_clmc/team/workspace/install/share/catkin/cmake/tools/threads.cmake\n-- Installing: /home/amd_clmc/team/workspace/install/share/catkin/cmake/tools/doxygen.cmake\n-- Installing: /home/amd_clmc/team/workspace/install/share/catkin/cmake/tools/bz2.cmake\n-- Installing: /home/amd_clmc/team/workspace/install/share/catkin/cmake/tools/rt.cmake\n-- Installing: /home/amd_clmc/team/workspace/install/share/catkin/cmake/tools/libraries.cmake\n-- Installing: /home/amd_clmc/team/workspace/install/share/catkin/cmake/catkin_libraries.cmake\n-- Installing: /home/amd_clmc/team/workspace/install/share/catkin/cmake/catkin_destinations.cmake\n-- Installing: /home/amd_clmc/team/workspace/install/share/catkin/cmake/assert.cmake\n-- Installing: /home/amd_clmc/team/workspace/install/share/catkin/cmake/debug_message.cmake\n-- Installing: /home/amd_clmc/team/workspace/install/share/catkin/cmake/parse_package_xml.py\n-- Installing: /home/amd_clmc/team/workspace/install/share/catkin/cmake/all.cmake\n-- Installing: /home/amd_clmc/team/workspace/install/share/catkin/cmake/find_program_required.cmake\n-- Installing: /home/amd_clmc/team/workspace/install/share/catkin/cmake/em\n-- Installing: /home/amd_clmc/team/workspace/install/share/catkin/cmake/em/order_packages.cmake.em\n-- Installing: /home/amd_clmc/team/workspace/install/share/catkin/cmake/em/pkg.pc.em\n-- Installing: /home/amd_clmc/team/workspace/install/share/catkin/cmake/list_insert_in_workspace_order.cmake\n-- Installing: /home/amd_clmc/team/workspace/install/share/catkin/cmake/atomic_configure_file.cmake\n-- Installing: /home/amd_clmc/team/workspace/install/share/catkin/cmake/shell.cmake\n-- Installing: /home/amd_clmc/team/workspace/install/share/catkin/cmake/legacy.cmake\n-- Installing: /home/amd_clmc/team/workspace/install/share/catkin/cmake/env-hooks\n-- Installing: /home/amd_clmc/team/workspace/install/share/catkin/cmake/env-hooks/05.catkin_make_isolated.bash\n-- Installing: /home/amd_clmc/team/workspace/install/share/catkin/cmake/env-hooks/05.catkin-test-results.bat.develspace.in\n-- Installing: /home/amd_clmc/team/workspace/install/share/catkin/cmake/env-hooks/05.catkin_make.bash\n-- Installing: /home/amd_clmc/team/workspace/install/share/catkin/cmake/env-hooks/05.catkin-test-results.sh.develspace.in\n-- Installing: /home/amd_clmc/team/workspace/install/share/catkin/cmake/stamp.cmake\n-- Installing: /home/amd_clmc/team/workspace/install/share/catkin/cmake/list_append_unique.cmake\n-- Installing: /home/amd_clmc/team/workspace/install/share/catkin/cmake/order_paths.py\n-- Installing: /home/amd_clmc/team/workspace/install/share/catkin/cmake/catkin_package_xml.cmake\n-- Installing: /home/amd_clmc/team/workspace/install/share/catkin/cmake/templates\n-- Installing: /home/amd_clmc/team/workspace/install/share/catkin/cmake/templates/setup.bat.in\n-- Installing: /home/amd_clmc/team/workspace/install/share/catkin/cmake/templates/setup.zsh.in\n-- Installing: /home/amd_clmc/team/workspace/install/share/catkin/cmake/templates/setup.sh.in\n-- Installing: /home/amd_clmc/team/workspace/install/share/catkin/cmake/templates/Doxyfile.in\n-- Installing: /home/amd_clmc/team/workspace/install/share/catkin/cmake/templates/cfg-extras.context.py.in\n-- Installing: /home/amd_clmc/team/workspace/install/share/catkin/cmake/templates/generate_cached_setup.py.in\n-- Installing: /home/amd_clmc/team/workspace/install/share/catkin/cmake/templates/pkg.context.pc.in\n-- Installing: /home/amd_clmc/team/workspace/install/share/catkin/cmake/templates/relay.py.in\n-- Installing: /home/amd_clmc/team/workspace/install/share/catkin/cmake/templates/script.sh.in\n-- Installing: /home/amd_clmc/team/workspace/install/share/catkin/cmake/templates/script.bash.in\n-- Installing: /home/amd_clmc/team/workspace/install/share/catkin/cmake/templates/env.bat.in\n-- Installing: /home/amd_clmc/team/workspace/install/share/catkin/cmake/templates/python_distutils_install.sh.in\n-- Installing: /home/amd_clmc/team/workspace/install/share/catkin/cmake/templates/env.sh.in\n-- Installing: /home/amd_clmc/team/workspace/install/share/catkin/cmake/templates/pkgConfig.cmake.in\n-- Installing: /home/amd_clmc/team/workspace/install/share/catkin/cmake/templates/order_packages.context.py.in\n-- Installing: /home/amd_clmc/team/workspace/install/share/catkin/cmake/templates/_setup_util.py\n-- Installing: /home/amd_clmc/team/workspace/install/share/catkin/cmake/templates/safe_execute_install.cmake.in\n-- Installing: /home/amd_clmc/team/workspace/install/share/catkin/cmake/templates/__init__.py.in\n-- Installing: /home/amd_clmc/team/workspace/install/share/catkin/cmake/templates/script.py.in\n-- Installing: /home/amd_clmc/team/workspace/install/share/catkin/cmake/templates/setup.bash.in\n-- Installing: /home/amd_clmc/team/workspace/install/share/catkin/cmake/templates/python_distutils_install.bat.in\n-- Installing: /home/amd_clmc/team/workspace/install/share/catkin/cmake/templates/script.in\n-- Installing: /home/amd_clmc/team/workspace/install/share/catkin/cmake/templates/_setup_util.py.in\n-- Installing: /home/amd_clmc/team/workspace/install/share/catkin/cmake/templates/rosinstall.in\n-- Installing: /home/amd_clmc/team/workspace/install/share/catkin/cmake/templates/pkgConfig-version.cmake.in\n-- Installing: /home/amd_clmc/team/workspace/install/share/catkin/cmake/templates/env-hook.context.py.in\n-- Installing: /home/amd_clmc/team/workspace/install/share/catkin/cmake/catkin_workspace.cmake\n-- Installing: /home/amd_clmc/team/workspace/install/share/catkin/cmake/catkin_package.cmake\n-- Installing: /home/amd_clmc/team/workspace/install/share/catkin/cmake/parse_arguments.cmake\n-- Installing: /home/amd_clmc/team/workspace/install/share/catkin/cmake/catkin_install_python.cmake\n-- Installing: /home/amd_clmc/team/workspace/install/share/catkin/cmake/catkin_python_setup.cmake\n-- Installing: /home/amd_clmc/team/workspace/install/share/catkin/cmake/empy.cmake\n-- Installing: /home/amd_clmc/team/workspace/install/share/catkin/cmake/toplevel.cmake\n-- Installing: /home/amd_clmc/team/workspace/install/share/catkin/cmake/catkin_metapackage.cmake\n-- Installing: /home/amd_clmc/team/workspace/install/share/catkin/cmake/string_starts_with.cmake\n-- Installing: /home/amd_clmc/team/workspace/install/share/catkin/cmake/catkin_generate_environment.cmake\n-- Installing: /home/amd_clmc/team/workspace/install/share/catkin/cmake/python.cmake\n+ [ -n  ]\n+ cd /home/amd_clmc/team/workspace/src/catkin/third_party/catkin\n+ /usr/bin/env PYTHONPATH=/home/amd_clmc/team/workspace/install/lib/python2.7/dist-packages:/home/amd_clmc/team/workspace/build/lib/python2.7/dist-packages:/opt/ros/groovy/lib/python2.7/dist-packages CATKIN_BINARY_DIR=/home/amd_clmc/team/workspace/build /usr/bin/python /home/amd_clmc/team/workspace/src/catkin/third_party/catkin/setup.py build --build-base /home/amd_clmc/team/workspace/build/catkin/third_party/catkin install --install-layout=deb --prefix=/home/amd_clmc/team/workspace/install --install-scripts=/home/amd_clmc/team/workspace/install/bin\nrunning build\nrunning build_py\ncreating /home/amd_clmc/team/workspace/build/catkin/third_party/catkin/lib.linux-x86_64-2.7\ncreating /home/amd_clmc/team/workspace/build/catkin/third_party/catkin/lib.linux-x86_64-2.7/catkin\ncopying python/catkin/environment_cache.py -> /home/amd_clmc/team/workspace/build/catkin/third_party/catkin/lib.linux-x86_64-2.7/catkin\ncopying python/catkin/builder.py -> /home/amd_clmc/team/workspace/build/catkin/third_party/catkin/lib.linux-x86_64-2.7/catkin\ncopying python/catkin/workspace_vcs.py -> /home/amd_clmc/team/workspace/build/catkin/third_party/catkin/lib.linux-x86_64-2.7/catkin\ncopying python/catkin/test_results.py -> /home/amd_clmc/team/workspace/build/catkin/third_party/catkin/lib.linux-x86_64-2.7/catkin\ncopying python/catkin/init_workspace.py -> /home/amd_clmc/team/workspace/build/catkin/third_party/catkin/lib.linux-x86_64-2.7/catkin\ncopying python/catkin/terminal_color.py -> /home/amd_clmc/team/workspace/build/catkin/third_party/catkin/lib.linux-x86_64-2.7/catkin\ncopying python/catkin/workspace.py -> /home/amd_clmc/team/workspace/build/catkin/third_party/catkin/lib.linux-x86_64-2.7/catkin\ncopying python/catkin/__init__.py -> /home/amd_clmc/team/workspace/build/catkin/third_party/catkin/lib.linux-x86_64-2.7/catkin\ncopying python/catkin/cmake.py -> /home/amd_clmc/team/workspace/build/catkin/third_party/catkin/lib.linux-x86_64-2.7/catkin\ncopying python/catkin/tidy_xml.py -> /home/amd_clmc/team/workspace/build/catkin/third_party/catkin/lib.linux-x86_64-2.7/catkin\ncopying python/catkin/find_in_workspaces.py -> /home/amd_clmc/team/workspace/build/catkin/third_party/catkin/lib.linux-x86_64-2.7/catkin\ncopying python/catkin/package_version.py -> /home/amd_clmc/team/workspace/build/catkin/third_party/catkin/lib.linux-x86_64-2.7/catkin\nrunning build_scripts\ncreating /home/amd_clmc/team/workspace/build/catkin/third_party/catkin/scripts-2.7\ncopying and adjusting bin/catkin_find -> /home/amd_clmc/team/workspace/build/catkin/third_party/catkin/scripts-2.7\ncopying and adjusting bin/catkin_init_workspace -> /home/amd_clmc/team/workspace/build/catkin/third_party/catkin/scripts-2.7\ncopying and adjusting bin/catkin_make -> /home/amd_clmc/team/workspace/build/catkin/third_party/catkin/scripts-2.7\ncopying and adjusting bin/catkin_make_isolated -> /home/amd_clmc/team/workspace/build/catkin/third_party/catkin/scripts-2.7\ncopying and adjusting bin/catkin_package_version -> /home/amd_clmc/team/workspace/build/catkin/third_party/catkin/scripts-2.7\ncopying and adjusting bin/catkin_prepare_release -> /home/amd_clmc/team/workspace/build/catkin/third_party/catkin/scripts-2.7\ncopying and adjusting bin/catkin_test_results -> /home/amd_clmc/team/workspace/build/catkin/third_party/catkin/scripts-2.7\ncopying and adjusting bin/catkin_topological_order -> /home/amd_clmc/team/workspace/build/catkin/third_party/catkin/scripts-2.7\nchanging mode of /home/amd_clmc/team/workspace/build/catkin/third_party/catkin/scripts-2.7/catkin_find from 644 to 755\nchanging mode of /home/amd_clmc/team/workspace/build/catkin/third_party/catkin/scripts-2.7/catkin_init_workspace from 644 to 755\nchanging mode of /home/amd_clmc/team/workspace/build/catkin/third_party/catkin/scripts-2.7/catkin_make from 644 to 755\nchanging mode of /home/amd_clmc/team/workspace/build/catkin/third_party/catkin/scripts-2.7/catkin_make_isolated from 644 to 755\nchanging mode of /home/amd_clmc/team/workspace/build/catkin/third_party/catkin/scripts-2.7/catkin_package_version from 644 to 755\nchanging mode of /home/amd_clmc/team/workspace/build/catkin/third_party/catkin/scripts-2.7/catkin_prepare_release from 644 to 755\nchanging mode of /home/amd_clmc/team/workspace/build/catkin/third_party/catkin/scripts-2.7/catkin_test_results from 644 to 755\nchanging mode of /home/amd_clmc/team/workspace/build/catkin/third_party/catkin/scripts-2.7/catkin_topological_order from 644 to 755\nrunning install\nrunning install_lib\ncreating /home/amd_clmc/team/workspace/install/lib/python2.7\ncreating /home/amd_clmc/team/workspace/install/lib/python2.7/dist-packages\ncreating /home/amd_clmc/team/workspace/install/lib/python2.7/dist-packages/catkin\ncopying /home/amd_clmc/team/workspace/build/catkin/third_party/catkin/lib.linux-x86_64-2.7/catkin/environment_cache.py -> /home/amd_clmc/team/workspace/install/lib/python2.7/dist-packages/catkin\ncopying /home/amd_clmc/team/workspace/build/catkin/third_party/catkin/lib.linux-x86_64-2.7/catkin/builder.py -> /home/amd_clmc/team/workspace/install/lib/python2.7/dist-packages/catkin\ncopying /home/amd_clmc/team/workspace/build/catkin/third_party/catkin/lib.linux-x86_64-2.7/catkin/workspace_vcs.py -> /home/amd_clmc/team/workspace/install/lib/python2.7/dist-packages/catkin\ncopying /home/amd_clmc/team/workspace/build/catkin/third_party/catkin/lib.linux-x86_64-2.7/catkin/test_results.py -> /home/amd_clmc/team/workspace/install/lib/python2.7/dist-packages/catkin\ncopying /home/amd_clmc/team/workspace/build/catkin/third_party/catkin/lib.linux-x86_64-2.7/catkin/init_workspace.py -> /home/amd_clmc/team/workspace/install/lib/python2.7/dist-packages/catkin\ncopying /home/amd_clmc/team/workspace/build/catkin/third_party/catkin/lib.linux-x86_64-2.7/catkin/terminal_color.py -> /home/amd_clmc/team/workspace/install/lib/python2.7/dist-packages/catkin\ncopying /home/amd_clmc/team/workspace/build/catkin/third_party/catkin/lib.linux-x86_64-2.7/catkin/workspace.py -> /home/amd_clmc/team/workspace/install/lib/python2.7/dist-packages/catkin\ncopying /home/amd_clmc/team/workspace/build/catkin/third_party/catkin/lib.linux-x86_64-2.7/catkin/__init__.py -> /home/amd_clmc/team/workspace/install/lib/python2.7/dist-packages/catkin\ncopying /home/amd_clmc/team/workspace/build/catkin/third_party/catkin/lib.linux-x86_64-2.7/catkin/cmake.py -> /home/amd_clmc/team/workspace/install/lib/python2.7/dist-packages/catkin\ncopying /home/amd_clmc/team/workspace/build/catkin/third_party/catkin/lib.linux-x86_64-2.7/catkin/tidy_xml.py -> /home/amd_clmc/team/workspace/install/lib/python2.7/dist-packages/catkin\ncopying /home/amd_clmc/team/workspace/build/catkin/third_party/catkin/lib.linux-x86_64-2.7/catkin/find_in_workspaces.py -> /home/amd_clmc/team/workspace/install/lib/python2.7/dist-packages/catkin\ncopying /home/amd_clmc/team/workspace/build/catkin/third_party/catkin/lib.linux-x86_64-2.7/catkin/package_version.py -> /home/amd_clmc/team/workspace/install/lib/python2.7/dist-packages/catkin\nbyte-compiling /home/amd_clmc/team/workspace/install/lib/python2.7/dist-packages/catkin/environment_cache.py to environment_cache.pyc\nbyte-compiling /home/amd_clmc/team/workspace/install/lib/python2.7/dist-packages/catkin/builder.py to builder.pyc\nbyte-compiling /home/amd_clmc/team/workspace/install/lib/python2.7/dist-packages/catkin/workspace_vcs.py to workspace_vcs.pyc\nbyte-compiling /home/amd_clmc/team/workspace/install/lib/python2.7/dist-packages/catkin/test_results.py to test_results.pyc\nbyte-compiling /home/amd_clmc/team/workspace/install/lib/python2.7/dist-packages/catkin/init_workspace.py to init_workspace.pyc\nbyte-compiling /home/amd_clmc/team/workspace/install/lib/python2.7/dist-packages/catkin/terminal_color.py to terminal_color.pyc\nbyte-compiling /home/amd_clmc/team/workspace/install/lib/python2.7/dist-packages/catkin/workspace.py to workspace.pyc\nbyte-compiling /home/amd_clmc/team/workspace/install/lib/python2.7/dist-packages/catkin/__init__.py to __init__.pyc\nbyte-compiling /home/amd_clmc/team/workspace/install/lib/python2.7/dist-packages/catkin/cmake.py to cmake.pyc\nbyte-compiling /home/amd_clmc/team/workspace/install/lib/python2.7/dist-packages/catkin/tidy_xml.py to tidy_xml.pyc\nbyte-compiling /home/amd_clmc/team/workspace/install/lib/python2.7/dist-packages/catkin/find_in_workspaces.py to find_in_workspaces.pyc\nbyte-compiling /home/amd_clmc/team/workspace/install/lib/python2.7/dist-packages/catkin/package_version.py to package_version.pyc\nrunning install_scripts\ncreating /home/amd_clmc/team/workspace/install/bin\ncopying /home/amd_clmc/team/workspace/build/catkin/third_party/catkin/scripts-2.7/catkin_make -> /home/amd_clmc/team/workspace/install/bin\ncopying /home/amd_clmc/team/workspace/build/catkin/third_party/catkin/scripts-2.7/catkin_prepare_release -> /home/amd_clmc/team/workspace/install/bin\ncopying /home/amd_clmc/team/workspace/build/catkin/third_party/catkin/scripts-2.7/catkin_package_version -> /home/amd_clmc/team/workspace/install/bin\ncopying /home/amd_clmc/team/workspace/build/catkin/third_party/catkin/scripts-2.7/catkin_find -> /home/amd_clmc/team/workspace/install/bin\ncopying /home/amd_clmc/team/workspace/build/catkin/third_party/catkin/scripts-2.7/catkin_make_isolated -> /home/amd_clmc/team/workspace/install/bin\ncopying /home/amd_clmc/team/workspace/build/catkin/third_party/catkin/scripts-2.7/catkin_topological_order -> /home/amd_clmc/team/workspace/install/bin\ncopying /home/amd_clmc/team/workspace/build/catkin/third_party/catkin/scripts-2.7/catkin_test_results -> /home/amd_clmc/team/workspace/install/bin\ncopying /home/amd_clmc/team/workspace/build/catkin/third_party/catkin/scripts-2.7/catkin_init_workspace -> /home/amd_clmc/team/workspace/install/bin\nchanging mode of /home/amd_clmc/team/workspace/install/bin/catkin_make to 755\nchanging mode of /home/amd_clmc/team/workspace/install/bin/catkin_prepare_release to 755\nchanging mode of /home/amd_clmc/team/workspace/install/bin/catkin_package_version to 755\nchanging mode of /home/amd_clmc/team/workspace/install/bin/catkin_find to 755\nchanging mode of /home/amd_clmc/team/workspace/install/bin/catkin_make_isolated to 755\nchanging mode of /home/amd_clmc/team/workspace/install/bin/catkin_topological_order to 755\nchanging mode of /home/amd_clmc/team/workspace/install/bin/catkin_test_results to 755\nchanging mode of /home/amd_clmc/team/workspace/install/bin/catkin_init_workspace to 755\nrunning install_egg_info\nWriting /home/amd_clmc/team/workspace/install/lib/python2.7/dist-packages/catkin-0.5.90.egg-info\n-- Installing: /home/amd_clmc/team/workspace/install/share/ros_realtime/package.xml\n-- Installing: /home/amd_clmc/team/workspace/install/lib/pkgconfig/allocators.pc\n-- Installing: /home/amd_clmc/team/workspace/install/share/allocators/cmake/allocatorsConfig.cmake\n-- Installing: /home/amd_clmc/team/workspace/install/share/allocators/cmake/allocatorsConfig-version.cmake\n-- Installing: /home/amd_clmc/team/workspace/install/share/allocators/package.xml\n-- Installing: /home/amd_clmc/team/workspace/install/lib/pkgconfig/rosatomic.pc\n-- Installing: /home/amd_clmc/team/workspace/install/share/rosatomic/cmake/rosatomicConfig.cmake\n-- Installing: /home/amd_clmc/team/workspace/install/share/rosatomic/cmake/rosatomicConfig-version.cmake\n-- Installing: /home/amd_clmc/team/workspace/install/share/rosatomic/package.xml\n-- Installing: /home/amd_clmc/team/workspace/install/lib/pkgconfig/lockfree.pc\n-- Installing: /home/amd_clmc/team/workspace/install/share/lockfree/cmake/lockfreeConfig.cmake\n-- Installing: /home/amd_clmc/team/workspace/install/share/lockfree/cmake/lockfreeConfig-version.cmake\n-- Installing: /home/amd_clmc/team/workspace/install/share/lockfree/package.xml\n-- Installing: /home/amd_clmc/team/workspace/install/lib/pkgconfig/rt_timer.pc\n-- Installing: /home/amd_clmc/team/workspace/install/share/rt_timer/cmake/rt_timerConfig.cmake\n-- Installing: /home/amd_clmc/team/workspace/install/share/rt_timer/cmake/rt_timerConfig-version.cmake\n-- Installing: /home/amd_clmc/team/workspace/install/share/rt_timer/package.xml\n-- Installing: /home/amd_clmc/team/workspace/install/lib/pkgconfig/xenomai_ros.pc\n-- Installing: /home/amd_clmc/team/workspace/install/share/xenomai_ros/cmake/xenomai_ros-extras.cmake\n-- Installing: /home/amd_clmc/team/workspace/install/share/xenomai_ros/cmake/xenomai_rosConfig.cmake\n-- Installing: /home/amd_clmc/team/workspace/install/share/xenomai_ros/cmake/xenomai_rosConfig-version.cmake\n-- Installing: /home/amd_clmc/team/workspace/install/share/xenomai_ros/package.xml\n-- Installing: /home/amd_clmc/team/workspace/install/share/xenomai_ros/cmake/XenomaiConfig.cmake\n-- Installing: /home/amd_clmc/team/workspace/install/lib/pkgconfig/rosrt.pc\n-- Installing: /home/amd_clmc/team/workspace/install/share/rosrt/cmake/rosrt-extras.cmake\n-- Installing: /home/amd_clmc/team/workspace/install/share/rosrt/cmake/rosrtConfig.cmake\n-- Installing: /home/amd_clmc/team/workspace/install/share/rosrt/cmake/rosrtConfig-version.cmake\n-- Installing: /home/amd_clmc/team/workspace/install/share/rosrt/package.xml\n-- Installing: /home/amd_clmc/team/workspace/install/lib/pkgconfig/ros_rt_test.pc\n-- Installing: /home/amd_clmc/team/workspace/install/share/ros_rt_test/cmake/ros_rt_testConfig.cmake\n-- Installing: /home/amd_clmc/team/workspace/install/share/ros_rt_test/cmake/ros_rt_testConfig-version.cmake\n-- Installing: /home/amd_clmc/team/workspace/install/share/ros_rt_test/package.xml\n-- Installing: /home/amd_clmc/team/workspace/install/share/vicon_bridge/msg/Marker.msg\n-- Installing: /home/amd_clmc/team/workspace/install/share/vicon_bridge/msg/Markers.msg\n-- Installing: /home/amd_clmc/team/workspace/install/share/vicon_bridge/msg/TfDistortInfo.msg\n-- Installing: /home/amd_clmc/team/workspace/install/share/vicon_bridge/srv/viconCalibrateSegment.srv\n-- Installing: /home/amd_clmc/team/workspace/install/share/vicon_bridge/srv/viconGrabPose.srv\n-- Installing: /home/amd_clmc/team/workspace/install/share/vicon_bridge/cmake/vicon_bridge-msg-paths.cmake\n-- Installing: /home/amd_clmc/team/workspace/install/include/vicon_bridge\n-- Installing: /home/amd_clmc/team/workspace/install/include/vicon_bridge/Marker.h\n-- Installing: /home/amd_clmc/team/workspace/install/include/vicon_bridge/viconCalibrateSegmentResponse.h\n-- Installing: /home/amd_clmc/team/workspace/install/include/vicon_bridge/viconCalibrateSegment.h\n-- Installing: /home/amd_clmc/team/workspace/install/include/vicon_bridge/Markers.h\n-- Installing: /home/amd_clmc/team/workspace/install/include/vicon_bridge/tf_distortConfig.h\n-- Installing: /home/amd_clmc/team/workspace/install/include/vicon_bridge/viconCalibrateSegmentRequest.h\n-- Installing: /home/amd_clmc/team/workspace/install/include/vicon_bridge/viconGrabPose.h\n-- Installing: /home/amd_clmc/team/workspace/install/include/vicon_bridge/TfDistortInfo.h\n-- Installing: /home/amd_clmc/team/workspace/install/include/vicon_bridge/viconGrabPoseResponse.h\n-- Installing: /home/amd_clmc/team/workspace/install/include/vicon_bridge/viconGrabPoseRequest.h\n-- Installing: /home/amd_clmc/team/workspace/install/share/common-lisp/ros/vicon_bridge\n-- Installing: /home/amd_clmc/team/workspace/install/share/common-lisp/ros/vicon_bridge/srv\n-- Installing: /home/amd_clmc/team/workspace/install/share/common-lisp/ros/vicon_bridge/srv/_package.lisp\n-- Installing: /home/amd_clmc/team/workspace/install/share/common-lisp/ros/vicon_bridge/srv/viconCalibrateSegment.lisp\n-- Installing: /home/amd_clmc/team/workspace/install/share/common-lisp/ros/vicon_bridge/srv/_package_viconCalibrateSegment.lisp\n-- Installing: /home/amd_clmc/team/workspace/install/share/common-lisp/ros/vicon_bridge/srv/vicon_bridge-srv.asd\n-- Installing: /home/amd_clmc/team/workspace/install/share/common-lisp/ros/vicon_bridge/srv/viconGrabPose.lisp\n-- Installing: /home/amd_clmc/team/workspace/install/share/common-lisp/ros/vicon_bridge/srv/_package_viconGrabPose.lisp\n-- Installing: /home/amd_clmc/team/workspace/install/share/common-lisp/ros/vicon_bridge/msg\n-- Installing: /home/amd_clmc/team/workspace/install/share/common-lisp/ros/vicon_bridge/msg/_package.lisp\n-- Installing: /home/amd_clmc/team/workspace/install/share/common-lisp/ros/vicon_bridge/msg/_package_TfDistortInfo.lisp\n-- Installing: /home/amd_clmc/team/workspace/install/share/common-lisp/ros/vicon_bridge/msg/Markers.lisp\n-- Installing: /home/amd_clmc/team/workspace/install/share/common-lisp/ros/vicon_bridge/msg/TfDistortInfo.lisp\n-- Installing: /home/amd_clmc/team/workspace/install/share/common-lisp/ros/vicon_bridge/msg/_package_Marker.lisp\n-- Installing: /home/amd_clmc/team/workspace/install/share/common-lisp/ros/vicon_bridge/msg/_package_Markers.lisp\n-- Installing: /home/amd_clmc/team/workspace/install/share/common-lisp/ros/vicon_bridge/msg/Marker.lisp\n-- Installing: /home/amd_clmc/team/workspace/install/share/common-lisp/ros/vicon_bridge/msg/vicon_bridge-msg.asd\nListing /home/amd_clmc/team/workspace/devel/lib/python2.7/dist-packages/vicon_bridge ...\nCompiling /home/amd_clmc/team/workspace/devel/lib/python2.7/dist-packages/vicon_bridge/__init__.py ...\nListing /home/amd_clmc/team/workspace/devel/lib/python2.7/dist-packages/vicon_bridge/cfg ...\nCompiling /home/amd_clmc/team/workspace/devel/lib/python2.7/dist-packages/vicon_bridge/cfg/__init__.py ...\nCompiling /home/amd_clmc/team/workspace/devel/lib/python2.7/dist-packages/vicon_bridge/cfg/tf_distortConfig.py ...\nListing /home/amd_clmc/team/workspace/devel/lib/python2.7/dist-packages/vicon_bridge/msg ...\nCompiling /home/amd_clmc/team/workspace/devel/lib/python2.7/dist-packages/vicon_bridge/msg/_Marker.py ...\nCompiling /home/amd_clmc/team/workspace/devel/lib/python2.7/dist-packages/vicon_bridge/msg/_Markers.py ...\nCompiling /home/amd_clmc/team/workspace/devel/lib/python2.7/dist-packages/vicon_bridge/msg/_TfDistortInfo.py ...\nCompiling /home/amd_clmc/team/workspace/devel/lib/python2.7/dist-packages/vicon_bridge/msg/__init__.py ...\nListing /home/amd_clmc/team/workspace/devel/lib/python2.7/dist-packages/vicon_bridge/srv ...\nCompiling /home/amd_clmc/team/workspace/devel/lib/python2.7/dist-packages/vicon_bridge/srv/__init__.py ...\nCompiling /home/amd_clmc/team/workspace/devel/lib/python2.7/dist-packages/vicon_bridge/srv/_viconCalibrateSegment.py ...\nCompiling /home/amd_clmc/team/workspace/devel/lib/python2.7/dist-packages/vicon_bridge/srv/_viconGrabPose.py ...\n-- Installing: /home/amd_clmc/team/workspace/install/lib/python2.7/dist-packages/vicon_bridge\n-- Installing: /home/amd_clmc/team/workspace/install/lib/python2.7/dist-packages/vicon_bridge/__init__.py\n-- Installing: /home/amd_clmc/team/workspace/install/lib/python2.7/dist-packages/vicon_bridge/cfg\n-- Installing: /home/amd_clmc/team/workspace/install/lib/python2.7/dist-packages/vicon_bridge/cfg/__init__.py\n-- Installing: /home/amd_clmc/team/workspace/install/lib/python2.7/dist-packages/vicon_bridge/cfg/__init__.pyc\n-- Installing: /home/amd_clmc/team/workspace/install/lib/python2.7/dist-packages/vicon_bridge/cfg/tf_distortConfig.pyc\n-- Installing: /home/amd_clmc/team/workspace/install/lib/python2.7/dist-packages/vicon_bridge/cfg/tf_distortConfig.py\n-- Installing: /home/amd_clmc/team/workspace/install/lib/python2.7/dist-packages/vicon_bridge/__init__.pyc\n-- Installing: /home/amd_clmc/team/workspace/install/lib/python2.7/dist-packages/vicon_bridge/srv\n-- Installing: /home/amd_clmc/team/workspace/install/lib/python2.7/dist-packages/vicon_bridge/srv/_viconGrabPose.pyc\n-- Installing: /home/amd_clmc/team/workspace/install/lib/python2.7/dist-packages/vicon_bridge/srv/__init__.py\n-- Installing: /home/amd_clmc/team/workspace/install/lib/python2.7/dist-packages/vicon_bridge/srv/_viconCalibrateSegment.py\n-- Installing: /home/amd_clmc/team/workspace/install/lib/python2.7/dist-packages/vicon_bridge/srv/_viconGrabPose.py\n-- Installing: /home/amd_clmc/team/workspace/install/lib/python2.7/dist-packages/vicon_bridge/srv/_viconCalibrateSegment.pyc\n-- Installing: /home/amd_clmc/team/workspace/install/lib/python2.7/dist-packages/vicon_bridge/srv/__init__.pyc\n-- Installing: /home/amd_clmc/team/workspace/install/lib/python2.7/dist-packages/vicon_bridge/msg\n-- Installing: /home/amd_clmc/team/workspace/install/lib/python2.7/dist-packages/vicon_bridge/msg/__init__.py\n-- Installing: /home/amd_clmc/team/workspace/install/lib/python2.7/dist-packages/vicon_bridge/msg/_TfDistortInfo.py\n-- Installing: /home/amd_clmc/team/workspace/install/lib/python2.7/dist-packages/vicon_bridge/msg/_Marker.pyc\n-- Installing: /home/amd_clmc/team/workspace/install/lib/python2.7/dist-packages/vicon_bridge/msg/__init__.pyc\n-- Installing: /home/amd_clmc/team/workspace/install/lib/python2.7/dist-packages/vicon_bridge/msg/_Markers.pyc\n-- Installing: /home/amd_clmc/team/workspace/install/lib/python2.7/dist-packages/vicon_bridge/msg/_Marker.py\n-- Installing: /home/amd_clmc/team/workspace/install/lib/python2.7/dist-packages/vicon_bridge/msg/_Markers.py\n-- Installing: /home/amd_clmc/team/workspace/install/lib/python2.7/dist-packages/vicon_bridge/msg/_TfDistortInfo.pyc\n-- Up-to-date: /home/amd_clmc/team/workspace/install/include/vicon_bridge/tf_distortConfig.h\n-- Up-to-date: /home/amd_clmc/team/workspace/install/lib/python2.7/dist-packages/vicon_bridge/__init__.py\nListing /home/amd_clmc/team/workspace/devel/lib/python2.7/dist-packages/vicon_bridge/cfg ...\n-- Installing: /home/amd_clmc/team/workspace/install/lib/python2.7/dist-packages/vicon_bridge/cfg\n-- Up-to-date: /home/amd_clmc/team/workspace/install/lib/python2.7/dist-packages/vicon_bridge/cfg/__init__.py\n-- Up-to-date: /home/amd_clmc/team/workspace/install/lib/python2.7/dist-packages/vicon_bridge/cfg/__init__.pyc\n-- Up-to-date: /home/amd_clmc/team/workspace/install/lib/python2.7/dist-packages/vicon_bridge/cfg/tf_distortConfig.pyc\n-- Up-to-date: /home/amd_clmc/team/workspace/install/lib/python2.7/dist-packages/vicon_bridge/cfg/tf_distortConfig.py\n-- Installing: /home/amd_clmc/team/workspace/install/lib/pkgconfig/vicon_bridge.pc\n-- Installing: /home/amd_clmc/team/workspace/install/share/vicon_bridge/cmake/vicon_bridge-msg-extras.cmake\n-- Installing: /home/amd_clmc/team/workspace/install/share/vicon_bridge/cmake/vicon_bridgeConfig.cmake\n-- Installing: /home/amd_clmc/team/workspace/install/share/vicon_bridge/cmake/vicon_bridgeConfig-version.cmake\n-- Installing: /home/amd_clmc/team/workspace/install/share/vicon_bridge/package.xml\n-- Installing: /home/amd_clmc/team/workspace/install/lib/pkgconfig/vicon_subscriber.pc\n-- Installing: /home/amd_clmc/team/workspace/install/share/vicon_subscriber/cmake/vicon_subscriberConfig.cmake\n-- Installing: /home/amd_clmc/team/workspace/install/share/vicon_subscriber/cmake/vicon_subscriberConfig-version.cmake\n-- Installing: /home/amd_clmc/team/workspace/install/share/vicon_subscriber/package.xml\n-- Installing: /home/amd_clmc/team/workspace/install/lib/libvicon_subscriber.so\n-- Set runtime path of "/home/amd_clmc/team/workspace/install/lib/libvicon_subscriber.so" to "/home/amd_clmc/team/workspace/install/lib:/opt/ros/groovy/lib"\n-- Installing: /home/amd_clmc/team/workspace/src/catkin/perception/vicon_subscriber/demos/bin/vicon_object_sh\n-- Set runtime path of "/home/amd_clmc/team/workspace/src/catkin/perception/vicon_subscriber/demos/bin/vicon_object_sh" to "/home/amd_clmc/team/workspace/install/lib:/home/amd_clmc/team/workspace/devel/lib:/opt/ros/groovy/lib"\n-- Installing: /home/amd_clmc/team/workspace/install/demos/running_vicon_object_demo\nBase path: /home/amd_clmc/team/workspace\nSource space: /home/amd_clmc/team/workspace/src\nBuild space: /home/amd_clmc/team/workspace/build\nDevel space: /home/amd_clmc/team/workspace/devel\nInstall space: /home/amd_clmc/team/workspace/install\nCreating symlink "/home/amd_clmc/team/workspace/src/CMakeLists.txt" pointing to "/opt/ros/groovy/share/catkin/cmake/toplevel.cmake"\n####\n#### Running command: "cmake /home/amd_clmc/team/workspace/src -DCATKIN_DEVEL_PREFIX=/home/amd_clmc/team/workspace/devel -DCMAKE_INSTALL_PREFIX=/home/amd_clmc/team/workspace/install" in "/home/amd_clmc/team/workspace/build"\n####\n####\n#### Running command: "make -j install" in "/home/amd_clmc/team/workspace/build"\n####\n'
p161
sg25
S'project_35621200'
p162
sS'build_success'
p163
I01
sbasb.