(iac.cc.results
Projects
p0
(dp1
S'job_name'
p2
S'motion_optimization_sab'
p3
sS'projects'
p4
(lp5
(iac.cc.results
Project
p6
(dp7
S'branches'
p8
(dp9
S'motion-optimization'
p10
S'demo-sab-tgp'
p11
ssS'name'
p12
S'MOTION-OPTIMIZATION'
p13
sS'trace'
p14
S''
p15
sS'testing_error'
p16
g15
sS'catkin_packages'
p17
(lp18
sS'build_message'
p19
S'COMMAND:catkin_make -j install\n------------------------------\n-- The C compiler identification is GNU 4.8.4\n-- The CXX compiler identification is GNU 4.8.4\n-- Check for working C compiler: /usr/bin/cc\n-- Check for working C compiler: /usr/bin/cc -- works\n-- Detecting C compiler ABI info\n-- Detecting C compiler ABI info - done\n-- Check for working CXX compiler: /usr/bin/c++\n-- Check for working CXX compiler: /usr/bin/c++ -- works\n-- Detecting CXX compiler ABI info\n-- Detecting CXX compiler ABI info - done\n-- Using CATKIN_DEVEL_PREFIX: /home/amd_clmc/team/workspace/devel\n-- Using CMAKE_PREFIX_PATH: /opt/ros/indigo\n-- This workspace overlays: /opt/ros/indigo\n-- Found PythonInterp: /usr/bin/python (found version "2.7.6") \n-- Using PYTHON_EXECUTABLE: /usr/bin/python\n-- Using Debian Python package layout\n-- Using empy: /usr/bin/empy\n-- Using CATKIN_ENABLE_TESTING: ON\n-- Call enable_testing()\n-- Using CATKIN_TEST_RESULTS_DIR: /home/amd_clmc/team/workspace/build/test_results\n-- Looking for include file pthread.h\n-- Looking for include file pthread.h - found\n-- Looking for pthread_create\n-- Looking for pthread_create - not found\n-- Looking for pthread_create in pthreads\n-- Looking for pthread_create in pthreads - not found\n-- Looking for pthread_create in pthread\n-- Looking for pthread_create in pthread - found\n-- Found Threads: TRUE  \n-- Found gtest sources under \'/usr/src/gtest\': gtests will be built\n-- Using Python nosetests: /usr/bin/nosetests-2.7\n-- catkin 0.6.16\n-- BUILD_SHARED_LIBS is on\nWARNING: Package "ompl" does not follow the version conventions. It should not contain leading zeros (unless the number is 0).\n-- ~~~~~~~~~~~~~~~~~~~~~~~~~~~~~~~~~~~~~~~~~~~~~~~~~\n-- ~~  traversing 13 packages in topological order:\n-- ~~  - apollo_moveit_config\n-- ~~  - catkin_gflags\n-- ~~  - catkin_glog\n-- ~~  - demo_robot_model\n-- ~~  - riemo\n-- ~~  - riemo_launch\n-- ~~  - riemo_scripts\n-- ~~  - riemo_controller_msgs\n-- ~~  - riemo_rt\n-- ~~  - riemo_kinematics\n-- ~~  - visualization_2d\n-- ~~  - riemo_ros\n-- ~~  - riemo_programs\n-- ~~~~~~~~~~~~~~~~~~~~~~~~~~~~~~~~~~~~~~~~~~~~~~~~~\n-- +++ processing catkin package: \'apollo_moveit_config\'\n-- ==> add_subdirectory(motion-optimization/riemo_ros_pkgs/apollo_moveit_config)\n-- +++ processing catkin package: \'catkin_gflags\'\n-- ==> add_subdirectory(catkin/third_party/catkin-gflags)\n-- Found GFLAGS: /usr/include  \n-- Found gflags  (include: /usr/include, library: /usr/lib/x86_64-linux-gnu/libgflags.so)\n-- +++ processing catkin package: \'catkin_glog\'\n-- ==> add_subdirectory(catkin/third_party/catkin-glog)\n-- Found GLOG: /usr/include  \n-- Found glog    (include: /usr/include, library: /usr/lib/x86_64-linux-gnu/libglog.so)\n-- +++ processing catkin package: \'demo_robot_model\'\n-- ==> add_subdirectory(motion-optimization/riemo_ros_pkgs/demo_robot_model)\n-- +++ processing catkin package: \'riemo\'\n-- ==> add_subdirectory(motion-optimization/riemo_catkin)\n------------------------------------------------------------------\nusing catkin test functionality\n------------------------------------------------------------------\ncmake source dir: /home/amd_clmc/team/workspace/src\ncmake module path: /home/amd_clmc/team/workspace/src/motion-optimization/cmake/Modules\n--------------------------------------------------------------------\nProject source directory: /home/amd_clmc/team/workspace/src\nBuilding riemo\nBuild type: \n--------------------------------------------------------------------\n**** No build type set ****\nEigen directory: /home/amd_clmc/team/workspace/src/motion-optimization/cmake/Modules/Eigen\n-- Found PkgConfig: /usr/bin/pkg-config (found version "0.26") \n-- checking for module \'eigen3\'\n--   found eigen3, version 3.2.0\n-- Found Eigen: /usr/include/eigen3  \n-- Eigen found (include: /usr/include/eigen3)\nEigen include directories: /usr/include/eigen3\n-- Looking for sgemm_\n-- Looking for sgemm_ - found\n-- A library with BLAS API found.\n-- Looking for cheev_\n-- Looking for cheev_ - found\n-- A library with LAPACK API found.\nLapack: TRUE\nLapack linker flags: \nLapack libraries: /usr/lib/liblapack.so.3gf;/usr/lib/libblas.so.3gf\nLapack 95 libraries: \n-- +++ processing catkin package: \'riemo_launch\'\n-- ==> add_subdirectory(motion-optimization/riemo_ros_pkgs/riemo_launch)\n-- +++ processing catkin package: \'riemo_scripts\'\n-- ==> add_subdirectory(motion-optimization/riemo_ros_pkgs/riemo_scripts)\n-- +++ processing catkin package: \'riemo_controller_msgs\'\n-- ==> add_subdirectory(motion-optimization/riemo_ros_pkgs/riemo_controller_msgs)\n-- Using these message generators: gencpp;genlisp;genpy\n-- riemo_controller_msgs: 16 messages, 2 services\n-- +++ processing catkin package: \'riemo_rt\'\n-- ==> add_subdirectory(motion-optimization/riemo_ros_pkgs/riemo_rt)\n-- Eigen found (include: /usr/include/eigen3)\n-- Found LibXml2: /usr/lib/x86_64-linux-gnu/libxml2.so (found version "2.9.1") \n-- +++ processing catkin package: \'riemo_kinematics\'\n-- ==> add_subdirectory(motion-optimization/riemo_ros_pkgs/riemo_kinematics)\n-- Eigen found (include: /usr/include/eigen3)\nEigen : /usr/include/eigen3\nCatkin :/home/amd_clmc/team/workspace/src/motion-optimization/riemo_catkin/riemo/riemo_differential_geometry/include/home/amd_clmc/team/workspace/src/motion-optimization/riemo_catkin/riemo/riemo_discrete_geometry/include/home/amd_clmc/team/workspace/src/motion-optimization/riemo_catkin/riemo/riemo_learning/include/home/amd_clmc/team/workspace/src/motion-optimization/riemo_catkin/riemo/riemo_optimization/include/home/amd_clmc/team/workspace/src/motion-optimization/riemo_catkin/riemo/riemo_motion/include/home/amd_clmc/team/workspace/src/motion-optimization/riemo_catkin/riemo/riemo_utilities/include/home/amd_clmc/team/workspace/src/motion-optimization/riemo_catkin/riemo/riemo_workspace/include/home/amd_clmc/team/workspace/src/motion-optimization/riemo_catkin/riemo/external/include/opt/ros/indigo/include/usr/include/eigen3/usr/include\nCurrent include directories in riemo_kinematics cmakelists file:\n-- dir=\'/home/amd_clmc/team/workspace/src/motion-optimization/riemo_ros_pkgs/riemo_kinematics/include\'\n-- dir=\'/usr/include/eigen3\'\n-- dir=\'/home/amd_clmc/team/workspace/src/motion-optimization/riemo_catkin/riemo/riemo_differential_geometry/include\'\n-- dir=\'/home/amd_clmc/team/workspace/src/motion-optimization/riemo_catkin/riemo/riemo_discrete_geometry/include\'\n-- dir=\'/home/amd_clmc/team/workspace/src/motion-optimization/riemo_catkin/riemo/riemo_learning/include\'\n-- dir=\'/home/amd_clmc/team/workspace/src/motion-optimization/riemo_catkin/riemo/riemo_optimization/include\'\n-- dir=\'/home/amd_clmc/team/workspace/src/motion-optimization/riemo_catkin/riemo/riemo_motion/include\'\n-- dir=\'/home/amd_clmc/team/workspace/src/motion-optimization/riemo_catkin/riemo/riemo_utilities/include\'\n-- dir=\'/home/amd_clmc/team/workspace/src/motion-optimization/riemo_catkin/riemo/riemo_workspace/include\'\n-- dir=\'/home/amd_clmc/team/workspace/src/motion-optimization/riemo_catkin/riemo/external/include\'\n-- dir=\'/opt/ros/indigo/include\'\n-- dir=\'/usr/include/eigen3\'\n-- dir=\'/usr/include\'\n-- +++ processing catkin package: \'visualization_2d\'\n-- ==> add_subdirectory(motion-optimization/riemo_ros_pkgs/visualization_2d)\n-- Using these message generators: gencpp;genlisp;genpy\n-- visualization_2d: 5 messages, 1 services\n-- +++ processing catkin package: \'riemo_ros\'\n-- ==> add_subdirectory(motion-optimization/riemo_ros_pkgs/riemo_ros)\n-- Using these message generators: gencpp;genlisp;genpy\n-- Eigen found (include: /usr/include/eigen3)\n-- +++ processing catkin package: \'riemo_programs\'\n-- ==> add_subdirectory(motion-optimization/riemo_ros_pkgs/riemo_programs)\n-- Using these message generators: gencpp;genlisp;genpy\nCMake Error at /opt/ros/indigo/share/catkin/cmake/catkinConfig.cmake:75 (find_package):\n  Could not find a package configuration file provided by\n  "riemo_grasping_msgs" with any of the following names:\n\n    riemo_grasping_msgsConfig.cmake\n    riemo_grasping_msgs-config.cmake\n\n  Add the installation prefix of "riemo_grasping_msgs" to CMAKE_PREFIX_PATH\n  or set "riemo_grasping_msgs_DIR" to a directory containing one of the above\n  files.  If "riemo_grasping_msgs" provides a separate development package or\n  SDK, be sure it has been installed.\nCall Stack (most recent call first):\n  motion-optimization/riemo_ros_pkgs/riemo_programs/CMakeLists.txt:16 (find_package)\n\n\n-- Configuring incomplete, errors occurred!\nSee also "/home/amd_clmc/team/workspace/build/CMakeFiles/CMakeOutput.log".\nSee also "/home/amd_clmc/team/workspace/build/CMakeFiles/CMakeError.log".\nBase path: /home/amd_clmc/team/workspace\nSource space: /home/amd_clmc/team/workspace/src\nBuild space: /home/amd_clmc/team/workspace/build\nDevel space: /home/amd_clmc/team/workspace/devel\nInstall space: /home/amd_clmc/team/workspace/install\nCreating symlink "/home/amd_clmc/team/workspace/src/CMakeLists.txt" pointing to "/opt/ros/indigo/share/catkin/cmake/toplevel.cmake"\n####\n#### Running command: "cmake /home/amd_clmc/team/workspace/src -DCATKIN_DEVEL_PREFIX=/home/amd_clmc/team/workspace/devel -DCMAKE_INSTALL_PREFIX=/home/amd_clmc/team/workspace/install -G Unix Makefiles" in "/home/amd_clmc/team/workspace/build"\n####\nInvoking "cmake" failed\n'
p20
sS'id'
p21
S'project_140654385682048'
p22
sS'build_success'
p23
I00
sbasb.