(iac.cc.results
Projects
p0
(dp1
S'job_name'
p2
S'all_masters'
p3
sS'projects'
p4
(lp5
(iac.cc.results
Project
p6
(dp7
S'branches'
p8
(dp9
sS'name'
p10
S'CONTINUOUS_INTEGRATION_EXAMPLE'
p11
sS'trace'
p12
S''
p13
sS'testing_error'
p14
g13
sS'catkin_packages'
p15
(lp16
sS'build_message'
p17
S'COMMAND:catkin_make -j install\n------------------------------\nWARNING: Package name "YAML_CPP" does not follow the naming conventions. It should start with a lower case letter and only contain lower case letters, digits and underscores.\n-- The C compiler identification is GNU 4.8.4\n-- The CXX compiler identification is GNU 4.8.4\n-- Check for working C compiler: /usr/bin/cc\n-- Check for working C compiler: /usr/bin/cc -- works\n-- Detecting C compiler ABI info\n-- Detecting C compiler ABI info - done\n-- Check for working CXX compiler: /usr/bin/c++\n-- Check for working CXX compiler: /usr/bin/c++ -- works\n-- Detecting CXX compiler ABI info\n-- Detecting CXX compiler ABI info - done\n-- Using CATKIN_DEVEL_PREFIX: /home/amd_clmc/team/workspace/devel\n-- Using CMAKE_PREFIX_PATH: /opt/ros/indigo\n-- This workspace overlays: /opt/ros/indigo\n-- Found PythonInterp: /usr/bin/python (found version "2.7.6") \n-- Using PYTHON_EXECUTABLE: /usr/bin/python\n-- Using Debian Python package layout\n-- Using empy: /usr/bin/empy\n-- Using CATKIN_ENABLE_TESTING: ON\n-- Call enable_testing()\n-- Using CATKIN_TEST_RESULTS_DIR: /home/amd_clmc/team/workspace/build/test_results\n-- Looking for include file pthread.h\n-- Looking for include file pthread.h - found\n-- Looking for pthread_create\n-- Looking for pthread_create - not found\n-- Looking for pthread_create in pthreads\n-- Looking for pthread_create in pthreads - not found\n-- Looking for pthread_create in pthread\n-- Looking for pthread_create in pthread - found\n-- Found Threads: TRUE  \n-- Found gtest sources under \'/usr/src/gtest\': gtests will be built\n-- Using Python nosetests: /usr/bin/nosetests-2.7\n-- catkin 0.6.16\n-- BUILD_SHARED_LIBS is on\nWARNING: Package name "YAML_CPP" does not follow the naming conventions. It should start with a lower case letter and only contain lower case letters, digits and underscores.\nWARNING: Package "ompl" does not follow the version conventions. It should not contain leading zeros (unless the number is 0).\n-- ~~~~~~~~~~~~~~~~~~~~~~~~~~~~~~~~~~~~~~~~~~~~~~~~~\n-- ~~  traversing 3 packages in topological order:\n-- ~~  - YAML_CPP\n-- ~~  - ci_example_python\n-- ~~  - ci_example_cpp\n-- ~~~~~~~~~~~~~~~~~~~~~~~~~~~~~~~~~~~~~~~~~~~~~~~~~\n-- +++ processing catkin package: \'YAML_CPP\'\n-- ==> add_subdirectory(catkin/third_party/YAML_CPP)\nWARNING: Package name "YAML_CPP" does not follow the naming conventions. It should start with a lower case letter and only contain lower case letters, digits and underscores.\n-- Boost version: 1.54.0\n-- Performing Test FLAG_WEXTRA\n-- Performing Test FLAG_WEXTRA - Success\n-- +++ processing catkin package: \'ci_example_python\'\n-- ==> add_subdirectory(catkin/examples/ci_example/ci_example_python)\nCMake Error at /opt/ros/indigo/share/catkin/cmake/catkin_python_setup.cmake:96 (message):\n  The package name \'ci_example\' differs from the basename of the path \'src\'\n  in project \'ci_example_python\'\nCall Stack (most recent call first):\n  catkin/examples/ci_example/ci_example_python/CMakeLists.txt:16 (catkin_python_setup)\n\n\n-- Configuring incomplete, errors occurred!\nSee also "/home/amd_clmc/team/workspace/build/CMakeFiles/CMakeOutput.log".\nSee also "/home/amd_clmc/team/workspace/build/CMakeFiles/CMakeError.log".\nBase path: /home/amd_clmc/team/workspace\nSource space: /home/amd_clmc/team/workspace/src\nBuild space: /home/amd_clmc/team/workspace/build\nDevel space: /home/amd_clmc/team/workspace/devel\nInstall space: /home/amd_clmc/team/workspace/install\nCreating symlink "/home/amd_clmc/team/workspace/src/CMakeLists.txt" pointing to "/opt/ros/indigo/share/catkin/cmake/toplevel.cmake"\n####\n#### Running command: "cmake /home/amd_clmc/team/workspace/src -DCATKIN_DEVEL_PREFIX=/home/amd_clmc/team/workspace/devel -DCMAKE_INSTALL_PREFIX=/home/amd_clmc/team/workspace/install -G Unix Makefiles" in "/home/amd_clmc/team/workspace/build"\n####\nInvoking "cmake" failed\n'
p18
sS'id'
p19
S'project_140322965342616'
p20
sS'build_success'
p21
I00
sba(iac.cc.results
Project
p22
(dp23
g8
g9
sg10
S'TEST'
p24
sg12
g13
sg14
g13
sg15
(lp25
(iac.cc.results
Catkin_package
p26
(dp27
S'doxygen'
p28
Nsg10
S'project_management_test_2'
p29
sS'unit_tests'
p30
(lp31
sS'demos'
p32
(lp33
sg19
S'catkin_package_140322951576464'
p34
sS'unit_tests_errors'
p35
Nsba(iac.cc.results
Catkin_package
p36
(dp37
g28
Nsg10
S'project_management_test_3'
p38
sg30
(lp39
sg32
(lp40
sg19
S'catkin_package_140322951575816'
p41
sg35
Nsba(iac.cc.results
Catkin_package
p42
(dp43
g28
Nsg10
S'project_management_test_1'
p44
sg30
(lp45
(iac.cc.results
Unit_tests
p46
(dp47
S'nb_failures'
p48
I2
sS'error'
p49
Nsg10
S'gtest-project_management_1_tests.xml'
p50
sS'nb_tests'
p51
I4
sS'testsuits'
p52
(dp53
S'Project1Test1'
p54
(iac.cc.results
TestSuit
p55
(dp56
g48
I1
sS'testcases'
p57
(dp58
S'success_test_1'
p59
(iac.cc.results
TestCase
p60
(dp61
S'failure'
p62
Nsg10
g59
sS'time'
p63
F0.0
sbsS'failure_test_1'
p64
(iac.cc.results
TestCase
p65
(dp66
g62
S'Value of: 2\nExpected: 1'
p67
sg10
g64
sg63
F0.0
sbssg10
g54
sg51
I2
sbsS'Project1Test2'
p68
(iac.cc.results
TestSuit
p69
(dp70
g48
I1
sg57
(dp71
S'failure_test_2'
p72
(iac.cc.results
TestCase
p73
(dp74
g62
S'Value of: 2\nExpected: 1'
p75
sg10
g72
sg63
F0.0
sbsS'success_test_2'
p76
(iac.cc.results
TestCase
p77
(dp78
g62
Nsg10
g76
sg63
F0.0
sbssg10
g68
sg51
I2
sbssbasg32
(lp79
(iac.cc.results
Demo
p80
(dp81
g10
S'test_project_1_fail_demo'
p82
sS'success'
p83
I00
sS'out'
p84
S"failed to run demo (exception thrown). command: \n\n/bin/bash /home/amd_clmc/team/workspace/tmp_run_demo.sh\n\nerror message:\n\nerror detected\n\nfailed to run command '/bin/bash /home/amd_clmc/team/workspace/tmp_run_demo.sh\n\nCommand '/bin/bash /home/amd_clmc/team/workspace/tmp_run_demo.sh' returned non-zero exit status 1\n\ncontent of sh script:\n#!/bin/bash\nsource /home/amd_clmc/team/workspace/devel/setup.bash\ncd /home/amd_clmc/team/workspace/devel/lib/project_management_test_1/\nchmod +x test_project_1_fail_demo\n./test_project_1_fail_demo /home/amd_clmc/team/workspace/devel\n"
p85
sba(iac.cc.results
Demo
p86
(dp87
g10
S'test_project_1_success_demo'
p88
sg83
I01
sg84
S'demo run with success.\n\nlog:\n\n#!/bin/bash\nsource /home/amd_clmc/team/workspace/devel/setup.bash\ncd /home/amd_clmc/team/workspace/devel/lib/project_management_test_1/\nchmod +x test_project_1_success_demo\n./test_project_1_success_demo /home/amd_clmc/team/workspace/devel\n\n\n'
p89
sbasg19
S'catkin_package_140322965335792'
p90
sg35
Nsbasg17
S'COMMAND:catkin_make -j install\n------------------------------\n-- The C compiler identification is GNU 4.8.4\n-- The CXX compiler identification is GNU 4.8.4\n-- Check for working C compiler: /usr/bin/cc\n-- Check for working C compiler: /usr/bin/cc -- works\n-- Detecting C compiler ABI info\n-- Detecting C compiler ABI info - done\n-- Check for working CXX compiler: /usr/bin/c++\n-- Check for working CXX compiler: /usr/bin/c++ -- works\n-- Detecting CXX compiler ABI info\n-- Detecting CXX compiler ABI info - done\n-- Using CATKIN_DEVEL_PREFIX: /home/amd_clmc/team/workspace/devel\n-- Using CMAKE_PREFIX_PATH: /opt/ros/indigo\n-- This workspace overlays: /opt/ros/indigo\n-- Found PythonInterp: /usr/bin/python (found version "2.7.6") \n-- Using PYTHON_EXECUTABLE: /usr/bin/python\n-- Using Debian Python package layout\n-- Using empy: /usr/bin/empy\n-- Using CATKIN_ENABLE_TESTING: ON\n-- Call enable_testing()\n-- Using CATKIN_TEST_RESULTS_DIR: /home/amd_clmc/team/workspace/build/test_results\n-- Looking for include file pthread.h\n-- Looking for include file pthread.h - found\n-- Looking for pthread_create\n-- Looking for pthread_create - not found\n-- Looking for pthread_create in pthreads\n-- Looking for pthread_create in pthreads - not found\n-- Looking for pthread_create in pthread\n-- Looking for pthread_create in pthread - found\n-- Found Threads: TRUE  \n-- Found gtest sources under \'/usr/src/gtest\': gtests will be built\n-- Using Python nosetests: /usr/bin/nosetests-2.7\n-- catkin 0.6.16\n-- BUILD_SHARED_LIBS is on\nWARNING: Package "ompl" does not follow the version conventions. It should not contain leading zeros (unless the number is 0).\n-- ~~~~~~~~~~~~~~~~~~~~~~~~~~~~~~~~~~~~~~~~~~~~~~~~~\n-- ~~  traversing 3 packages in topological order:\n-- ~~  - project_management_test_1\n-- ~~  - project_management_test_2\n-- ~~  - project_management_test_3\n-- ~~~~~~~~~~~~~~~~~~~~~~~~~~~~~~~~~~~~~~~~~~~~~~~~~\n-- +++ processing catkin package: \'project_management_test_1\'\n-- ==> add_subdirectory(catkin/test/project_management_test_1)\n-- +++ processing catkin package: \'project_management_test_2\'\n-- ==> add_subdirectory(catkin/test/project_management_test_2)\n-- +++ processing catkin package: \'project_management_test_3\'\n-- ==> add_subdirectory(catkin/test/project_management_test_3)\n-- Configuring done\n-- Generating done\n-- Build files have been written to: /home/amd_clmc/team/workspace/build\nScanning dependencies of target test_project_1_fail_demo\nScanning dependencies of target test_project_1_ttest\nScanning dependencies of target test_project_2_demo_success\nScanning dependencies of target test_project_2_demo_fail\nScanning dependencies of target test_project_1_success_demo\n[ 20%] [ 60%] [ 60%] [ 80%] [100%] Building CXX object catkin/test/project_management_test_1/CMakeFiles/test_project_1_fail_demo.dir/src/test_project_1_demo_fail.cpp.o\nBuilding CXX object catkin/test/project_management_test_1/CMakeFiles/test_project_1_success_demo.dir/src/test_project_1_demo_success.cpp.o\nBuilding CXX object catkin/test/project_management_test_2/CMakeFiles/test_project_2_demo_success.dir/src/test_project_2_demo_success.cpp.o\nBuilding CXX object catkin/test/project_management_test_1/CMakeFiles/test_project_1_ttest.dir/src/t_test.cpp.o\nBuilding CXX object catkin/test/project_management_test_2/CMakeFiles/test_project_2_demo_fail.dir/src/test_project_2_demo_fail.cpp.o\nLinking CXX executable /home/amd_clmc/team/workspace/devel/lib/project_management_test_1/test_project_1_fail_demo\nLinking CXX executable /home/amd_clmc/team/workspace/devel/lib/project_management_test_2/test_project_2_demo_fail\nLinking CXX executable /home/amd_clmc/team/workspace/devel/lib/project_management_test_2/test_project_2_demo_success\nLinking CXX executable /home/amd_clmc/team/workspace/devel/lib/project_management_test_1/test_project_1_success_demo\n[100%] [100%] Built target test_project_2_demo_fail\nBuilt target test_project_1_fail_demo\n[100%] Built target test_project_1_success_demo\n[100%] Built target test_project_2_demo_success\nLinking CXX executable /home/amd_clmc/team/workspace/devel/lib/project_management_test_1/test_project_1_ttest\n[100%] Built target test_project_1_ttest\nInstall the project...\n-- Install configuration: ""\n-- Installing: /home/amd_clmc/team/workspace/install/_setup_util.py\n-- Installing: /home/amd_clmc/team/workspace/install/env.sh\n-- Installing: /home/amd_clmc/team/workspace/install/setup.bash\n-- Installing: /home/amd_clmc/team/workspace/install/setup.sh\n-- Installing: /home/amd_clmc/team/workspace/install/setup.zsh\n-- Installing: /home/amd_clmc/team/workspace/install/.rosinstall\n-- Installing: /home/amd_clmc/team/workspace/install/lib/pkgconfig/project_management_test_1.pc\n-- Installing: /home/amd_clmc/team/workspace/install/share/project_management_test_1/cmake/project_management_test_1Config.cmake\n-- Installing: /home/amd_clmc/team/workspace/install/share/project_management_test_1/cmake/project_management_test_1Config-version.cmake\n-- Installing: /home/amd_clmc/team/workspace/install/share/project_management_test_1/package.xml\n-- Installing: /home/amd_clmc/team/workspace/install/lib/pkgconfig/project_management_test_2.pc\n-- Installing: /home/amd_clmc/team/workspace/install/share/project_management_test_2/cmake/project_management_test_2Config.cmake\n-- Installing: /home/amd_clmc/team/workspace/install/share/project_management_test_2/cmake/project_management_test_2Config-version.cmake\n-- Installing: /home/amd_clmc/team/workspace/install/share/project_management_test_2/package.xml\n-- Installing: /home/amd_clmc/team/workspace/install/lib/pkgconfig/project_management_test_3.pc\n-- Installing: /home/amd_clmc/team/workspace/install/share/project_management_test_3/cmake/project_management_test_3Config.cmake\n-- Installing: /home/amd_clmc/team/workspace/install/share/project_management_test_3/cmake/project_management_test_3Config-version.cmake\n-- Installing: /home/amd_clmc/team/workspace/install/share/project_management_test_3/package.xml\nBase path: /home/amd_clmc/team/workspace\nSource space: /home/amd_clmc/team/workspace/src\nBuild space: /home/amd_clmc/team/workspace/build\nDevel space: /home/amd_clmc/team/workspace/devel\nInstall space: /home/amd_clmc/team/workspace/install\n####\n#### Running command: "cmake /home/amd_clmc/team/workspace/src -DCATKIN_DEVEL_PREFIX=/home/amd_clmc/team/workspace/devel -DCMAKE_INSTALL_PREFIX=/home/amd_clmc/team/workspace/install -G Unix Makefiles" in "/home/amd_clmc/team/workspace/build"\n####\n####\n#### Running command: "make -j install" in "/home/amd_clmc/team/workspace/build"\n####\n'
p91
sg19
S'project_140322958806120'
p92
sg21
I01
sbasb.