(iac.cc.results
Projects
p0
(dp1
S'job_name'
p2
S'all_masters'
p3
sS'projects'
p4
(lp5
(iac.cc.results
Project
p6
(dp7
S'branches'
p8
(dp9
sS'name'
p10
S'AMD_CLMC_DMP'
p11
sS'trace'
p12
S''
p13
sS'testing_error'
p14
g13
sS'catkin_packages'
p15
(lp16
sS'build_message'
p17
S"COMMAND:catkin_make -j install\n------------------------------\nBase path: /home/amd_clmc/team/workspace\nSource space: /home/amd_clmc/team/workspace/src\nBuild space: /home/amd_clmc/team/workspace/build\n[Errno 28] No space left on device: '/home/amd_clmc/team/workspace/build'\n"
p18
sS'id'
p19
S'project_140264684284960'
p20
sS'build_success'
p21
I00
sba(iac.cc.results
Project
p22
(dp23
g8
g9
sg10
S'APOLLO-CALIBRATION'
p24
sg12
g13
sg14
g13
sg15
(lp25
sg17
S"COMMAND:catkin_make -j install\n------------------------------\nBase path: /home/amd_clmc/team/workspace\nSource space: /home/amd_clmc/team/workspace/src\nBuild space: /home/amd_clmc/team/workspace/build\n[Errno 28] No space left on device: '/home/amd_clmc/team/workspace/build'\n"
p26
sg19
S'project_140264676541144'
p27
sg21
I00
sba(iac.cc.results
Project
p28
(dp29
g8
g9
sg10
S'APOLLO-EVENT-BASED'
p30
sg12
g13
sg14
g13
sg15
(lp31
sg17
S"COMMAND:catkin_make -j install\n------------------------------\nBase path: /home/amd_clmc/team/workspace\nSource space: /home/amd_clmc/team/workspace/src\nBuild space: /home/amd_clmc/team/workspace/build\n[Errno 28] No space left on device: '/home/amd_clmc/team/workspace/build'\n"
p32
sg19
S'project_140264676398360'
p33
sg21
I00
sba(iac.cc.results
Project
p34
(dp35
g8
g9
sg10
S'ARM-CALIBRATION'
p36
sg12
g13
sg14
g13
sg15
(lp37
sg17
S"COMMAND:catkin_make -j install\n------------------------------\nBase path: /home/amd_clmc/team/workspace\nSource space: /home/amd_clmc/team/workspace/src\nBuild space: /home/amd_clmc/team/workspace/build\n[Errno 28] No space left on device: '/home/amd_clmc/team/workspace/build'\n"
p38
sg19
S'project_140264676735888'
p39
sg21
I00
sba(iac.cc.results
Project
p40
(dp41
g8
g9
sg10
S'ARM-GRASPING'
p42
sg12
g13
sg14
g13
sg15
(lp43
sg17
S"COMMAND:catkin_make -j install\n------------------------------\nBase path: /home/amd_clmc/team/workspace\nSource space: /home/amd_clmc/team/workspace/src\nBuild space: /home/amd_clmc/team/workspace/build\n[Errno 28] No space left on device: '/home/amd_clmc/team/workspace/build'\n"
p44
sg19
S'project_140264677049120'
p45
sg21
I00
sba(iac.cc.results
Project
p46
(dp47
g8
g9
sg10
S'ARM-REGRASPING-EXPERIMENT'
p48
sg12
g13
sg14
g13
sg15
(lp49
sg17
S"COMMAND:catkin_make -j install\n------------------------------\nBase path: /home/amd_clmc/team/workspace\nSource space: /home/amd_clmc/team/workspace/src\nBuild space: /home/amd_clmc/team/workspace/build\n[Errno 28] No space left on device: '/home/amd_clmc/team/workspace/build'\n"
p50
sg19
S'project_140264676450248'
p51
sg21
I00
sba(iac.cc.results
Project
p52
(dp53
g8
g9
sg10
S'CATKIN-Apollo'
p54
sg12
g13
sg14
g13
sg15
(lp55
sg17
S"COMMAND:catkin_make -j install\n------------------------------\nBase path: /home/amd_clmc/team/workspace\nSource space: /home/amd_clmc/team/workspace/src\nBuild space: /home/amd_clmc/team/workspace/build\n[Errno 28] No space left on device: '/home/amd_clmc/team/workspace/build'\n"
p56
sg19
S'project_140264676337640'
p57
sg21
I00
sba(iac.cc.results
Project
p58
(dp59
g8
g9
sg10
S'CATKIN-Arm'
p60
sg12
g13
sg14
g13
sg15
(lp61
sg17
S"COMMAND:catkin_make -j install\n------------------------------\nBase path: /home/amd_clmc/team/workspace\nSource space: /home/amd_clmc/team/workspace/src\nBuild space: /home/amd_clmc/team/workspace/build\n[Errno 28] No space left on device: '/home/amd_clmc/team/workspace/build'\n"
p62
sg19
S'project_140264677046104'
p63
sg21
I00
sba(iac.cc.results
Project
p64
(dp65
g8
g9
sg10
S'CATKIN-Arm2D'
p66
sg12
g13
sg14
g13
sg15
(lp67
sg17
S"COMMAND:catkin_make -j install\n------------------------------\nBase path: /home/amd_clmc/team/workspace\nSource space: /home/amd_clmc/team/workspace/src\nBuild space: /home/amd_clmc/team/workspace/build\n[Errno 28] No space left on device: '/home/amd_clmc/team/workspace/build'\n"
p68
sg19
S'project_140264676456784'
p69
sg21
I00
sba(iac.cc.results
Project
p70
(dp71
g8
g9
sg10
S'CATKIN-Master'
p72
sg12
g13
sg14
g13
sg15
(lp73
sg17
S"COMMAND:catkin_make -j install\n------------------------------\nBase path: /home/amd_clmc/team/workspace\nSource space: /home/amd_clmc/team/workspace/src\nBuild space: /home/amd_clmc/team/workspace/build\n[Errno 28] No space left on device: '/home/amd_clmc/team/workspace/build'\n"
p74
sg19
S'project_140264676605176'
p75
sg21
I00
sba(iac.cc.results
Project
p76
(dp77
g8
g9
sg10
S'CATKIN-SL'
p78
sg12
g13
sg14
g13
sg15
(lp79
sg17
S"COMMAND:catkin_make -j install\n------------------------------\nBase path: /home/amd_clmc/team/workspace\nSource space: /home/amd_clmc/team/workspace/src\nBuild space: /home/amd_clmc/team/workspace/build\n[Errno 28] No space left on device: '/home/amd_clmc/team/workspace/build'\n"
p80
sg19
S'project_140264676907344'
p81
sg21
I00
sba(iac.cc.results
Project
p82
(dp83
g8
g9
sg10
S'COUPLING_TERMS'
p84
sg12
g13
sg14
g13
sg15
(lp85
sg17
S"COMMAND:catkin_make -j install\n------------------------------\nBase path: /home/amd_clmc/team/workspace\nSource space: /home/amd_clmc/team/workspace/src\nBuild space: /home/amd_clmc/team/workspace/build\n[Errno 28] No space left on device: '/home/amd_clmc/team/workspace/build'\n"
p86
sg19
S'project_140264676972880'
p87
sg21
I00
sba(iac.cc.results
Project
p88
(dp89
g8
g9
sg10
S'DBOT'
p90
sg12
g13
sg14
g13
sg15
(lp91
sg17
S"COMMAND:catkin_make -j install\n------------------------------\nBase path: /home/amd_clmc/team/workspace\nSource space: /home/amd_clmc/team/workspace/src\nBuild space: /home/amd_clmc/team/workspace/build\n[Errno 28] No space left on device: '/home/amd_clmc/team/workspace/build'\n"
p92
sg19
S'project_140264677050200'
p93
sg21
I00
sba(iac.cc.results
Project
p94
(dp95
g8
g9
sg10
S'DMP-MASTER'
p96
sg12
g13
sg14
g13
sg15
(lp97
sg17
S"COMMAND:catkin_make -j install\n------------------------------\nBase path: /home/amd_clmc/team/workspace\nSource space: /home/amd_clmc/team/workspace/src\nBuild space: /home/amd_clmc/team/workspace/build\n[Errno 28] No space left on device: '/home/amd_clmc/team/workspace/build'\n"
p98
sg19
S'project_140264684021016'
p99
sg21
I00
sba(iac.cc.results
Project
p100
(dp101
g8
g9
sg10
S'FL'
p102
sg12
g13
sg14
g13
sg15
(lp103
sg17
S"COMMAND:catkin_make -j install\n------------------------------\nBase path: /home/amd_clmc/team/workspace\nSource space: /home/amd_clmc/team/workspace/src\nBuild space: /home/amd_clmc/team/workspace/build\n[Errno 28] No space left on device: '/home/amd_clmc/team/workspace/build'\n"
p104
sg19
S'project_140264684297896'
p105
sg21
I00
sba(iac.cc.results
Project
p106
(dp107
g8
g9
sg10
S'HAPTIC-FEEDBACK'
p108
sg12
g13
sg14
g13
sg15
(lp109
sg17
S"COMMAND:catkin_make -j install\n------------------------------\nBase path: /home/amd_clmc/team/workspace\nSource space: /home/amd_clmc/team/workspace/src\nBuild space: /home/amd_clmc/team/workspace/build\n[Errno 28] No space left on device: '/home/amd_clmc/team/workspace/build'\n"
p110
sg19
S'project_140264676338288'
p111
sg21
I00
sba(iac.cc.results
Project
p112
(dp113
g8
g9
sg10
S'LOCOMOTION'
p114
sg12
g13
sg14
g13
sg15
(lp115
sg17
S"COMMAND:catkin_make -j install\n------------------------------\nBase path: /home/amd_clmc/team/workspace\nSource space: /home/amd_clmc/team/workspace/src\nBuild space: /home/amd_clmc/team/workspace/build\n[Errno 28] No space left on device: '/home/amd_clmc/team/workspace/build'\n"
p116
sg19
S'project_140264676543880'
p117
sg21
I00
sba(iac.cc.results
Project
p118
(dp119
g8
g9
sg10
S'MOTION-OPTIMIZATION'
p120
sg12
g13
sg14
g13
sg15
(lp121
sg17
S"COMMAND:catkin_make -j install\n------------------------------\nBase path: /home/amd_clmc/team/workspace\nSource space: /home/amd_clmc/team/workspace/src\nBuild space: /home/amd_clmc/team/workspace/build\n[Errno 28] No space left on device: '/home/amd_clmc/team/workspace/build'\n"
p122
sg19
S'project_140264677045744'
p123
sg21
I00
sba(iac.cc.results
Project
p124
(dp125
g8
g9
sg10
S'PERCEPTION'
p126
sg12
g13
sg14
g13
sg15
(lp127
sg17
S"COMMAND:catkin_make -j install\n------------------------------\nBase path: /home/amd_clmc/team/workspace\nSource space: /home/amd_clmc/team/workspace/src\nBuild space: /home/amd_clmc/team/workspace/build\n[Errno 28] No space left on device: '/home/amd_clmc/team/workspace/build'\n"
p128
sg19
S'project_140264676475464'
p129
sg21
I00
sba(iac.cc.results
Project
p130
(dp131
g8
g9
sg10
S'RIEMO-ELECTRICAL-FIELDS'
p132
sg12
g13
sg14
g13
sg15
(lp133
sg17
S"COMMAND:catkin_make -j install\n------------------------------\nBase path: /home/amd_clmc/team/workspace\nSource space: /home/amd_clmc/team/workspace/src\nBuild space: /home/amd_clmc/team/workspace/build\n[Errno 28] No space left on device: '/home/amd_clmc/team/workspace/build'\n"
p134
sg19
S'project_140264677001408'
p135
sg21
I00
sba(iac.cc.results
Project
p136
(dp137
g8
g9
sg10
S'ROBOT-ARM-POSE-ESTIMATION'
p138
sg12
g13
sg14
g13
sg15
(lp139
sg17
S"COMMAND:catkin_make -j install\n------------------------------\nBase path: /home/amd_clmc/team/workspace\nSource space: /home/amd_clmc/team/workspace/src\nBuild space: /home/amd_clmc/team/workspace/build\n[Errno 28] No space left on device: '/home/amd_clmc/team/workspace/build'\n"
p140
sg19
S'project_140264681511104'
p141
sg21
I00
sba(iac.cc.results
Project
p142
(dp143
g8
g9
sg10
S'SL-CONTROLLER-MANAGER-APOLLO'
p144
sg12
g13
sg14
g13
sg15
(lp145
sg17
S"COMMAND:catkin_make -j install\n------------------------------\nBase path: /home/amd_clmc/team/workspace\nSource space: /home/amd_clmc/team/workspace/src\nBuild space: /home/amd_clmc/team/workspace/build\n[Errno 28] No space left on device: '/home/amd_clmc/team/workspace/build'\n"
p146
sg19
S'project_140264681509736'
p147
sg21
I00
sba(iac.cc.results
Project
p148
(dp149
g8
g9
sg10
S'SL-CONTROLLER-MANAGER-ARM'
p150
sg12
g13
sg14
g13
sg15
(lp151
sg17
S"COMMAND:catkin_make -j install\n------------------------------\nBase path: /home/amd_clmc/team/workspace\nSource space: /home/amd_clmc/team/workspace/src\nBuild space: /home/amd_clmc/team/workspace/build\n[Errno 28] No space left on device: '/home/amd_clmc/team/workspace/build'\n"
p152
sg19
S'project_140264684381032'
p153
sg21
I00
sba(iac.cc.results
Project
p154
(dp155
g8
g9
sg10
S'SL-PLANNING-ARM'
p156
sg12
g13
sg14
g13
sg15
(lp157
sg17
S"COMMAND:catkin_make -j install\n------------------------------\nBase path: /home/amd_clmc/team/workspace\nSource space: /home/amd_clmc/team/workspace/src\nBuild space: /home/amd_clmc/team/workspace/build\n[Errno 28] No space left on device: '/home/amd_clmc/team/workspace/build'\n"
p158
sg19
S'project_140264684384200'
p159
sg21
I00
sba(iac.cc.results
Project
p160
(dp161
g8
g9
sg10
S'TEST'
p162
sg12
g13
sg14
g13
sg15
(lp163
sg17
S"COMMAND:catkin_make -j install\n------------------------------\nBase path: /home/amd_clmc/team/workspace\nSource space: /home/amd_clmc/team/workspace/src\nBuild space: /home/amd_clmc/team/workspace/build\n[Errno 28] No space left on device: '/home/amd_clmc/team/workspace/build'\n"
p164
sg19
S'project_140264684285104'
p165
sg21
I00
sba(iac.cc.results
Project
p166
(dp167
g8
g9
sg10
S'TRACKING-PLANNING-GRASPING'
p168
sg12
g13
sg14
g13
sg15
(lp169
sg17
S"COMMAND:catkin_make -j install\n------------------------------\nBase path: /home/amd_clmc/team/workspace\nSource space: /home/amd_clmc/team/workspace/src\nBuild space: /home/amd_clmc/team/workspace/build\n[Errno 28] No space left on device: '/home/amd_clmc/team/workspace/build'\n"
p170
sg19
S'project_140264677050344'
p171
sg21
I00
sba(iac.cc.results
Project
p172
(dp173
g8
g9
sg10
S'VICON-ROS'
p174
sg12
g13
sg14
g13
sg15
(lp175
sg17
S"COMMAND:catkin_make -j install\n------------------------------\nBase path: /home/amd_clmc/team/workspace\nSource space: /home/amd_clmc/team/workspace/src\nBuild space: /home/amd_clmc/team/workspace/build\n[Errno 28] No space left on device: '/home/amd_clmc/team/workspace/build'\n"
p176
sg19
S'project_140264676338936'
p177
sg21
I00
sba(iac.cc.results
Project
p178
(dp179
g8
g9
sg10
S'VISION-CALIBRATION'
p180
sg12
g13
sg14
g13
sg15
(lp181
sg17
S"COMMAND:catkin_make -j install\n------------------------------\nBase path: /home/amd_clmc/team/workspace\nSource space: /home/amd_clmc/team/workspace/src\nBuild space: /home/amd_clmc/team/workspace/build\n[Errno 28] No space left on device: '/home/amd_clmc/team/workspace/build'\n"
p182
sg19
S'project_140264676974392'
p183
sg21
I00
sba(iac.cc.results
Project
p184
(dp185
g8
g9
sg10
S'VISUAL_SERVOING'
p186
sg12
g13
sg14
g13
sg15
(lp187
sg17
S"COMMAND:catkin_make -j install\n------------------------------\nBase path: /home/amd_clmc/team/workspace\nSource space: /home/amd_clmc/team/workspace/src\nBuild space: /home/amd_clmc/team/workspace/build\n[Errno 28] No space left on device: '/home/amd_clmc/team/workspace/build'\n"
p188
sg19
S'project_140264677045960'
p189
sg21
I00
sba(iac.cc.results
Project
p190
(dp191
g8
g9
sg10
S'WALKING-CAPTURE-POINTS'
p192
sg12
g13
sg14
g13
sg15
(lp193
sg17
S"COMMAND:catkin_make -j install\n------------------------------\nBase path: /home/amd_clmc/team/workspace\nSource space: /home/amd_clmc/team/workspace/src\nBuild space: /home/amd_clmc/team/workspace/build\n[Errno 28] No space left on device: '/home/amd_clmc/team/workspace/build'\n"
p194
sg19
S'project_140264676540928'
p195
sg21
I00
sbasb.