(iac.cc.results
Projects
p0
(dp1
S'job_name'
p2
S'all_masters'
p3
sS'projects'
p4
(lp5
(iac.cc.results
Project
p6
(dp7
S'branches'
p8
(dp9
sS'name'
p10
S'CONTINUOUS_INTEGRATION_EXAMPLE'
p11
sS'trace'
p12
S''
p13
sS'testing_error'
p14
g13
sS'catkin_packages'
p15
(lp16
sS'build_message'
p17
S'COMMAND:catkin_make -j install\n------------------------------\nWARNING: Package name "YAML_CPP" does not follow the naming conventions. It should start with a lower case letter and only contain lower case letters, digits and underscores.\n-- The C compiler identification is GNU 4.8.4\n-- The CXX compiler identification is GNU 4.8.4\n-- Check for working C compiler: /usr/bin/cc\n-- Check for working C compiler: /usr/bin/cc -- works\n-- Detecting C compiler ABI info\n-- Detecting C compiler ABI info - done\n-- Check for working CXX compiler: /usr/bin/c++\n-- Check for working CXX compiler: /usr/bin/c++ -- works\n-- Detecting CXX compiler ABI info\n-- Detecting CXX compiler ABI info - done\n-- Using CATKIN_DEVEL_PREFIX: /home/amd_clmc/team/workspace/devel\n-- Using CMAKE_PREFIX_PATH: /opt/ros/indigo\n-- This workspace overlays: /opt/ros/indigo\n-- Found PythonInterp: /usr/bin/python (found version "2.7.6") \n-- Using PYTHON_EXECUTABLE: /usr/bin/python\n-- Using Debian Python package layout\n-- Using empy: /usr/bin/empy\n-- Using CATKIN_ENABLE_TESTING: ON\n-- Call enable_testing()\n-- Using CATKIN_TEST_RESULTS_DIR: /home/amd_clmc/team/workspace/build/test_results\n-- Looking for include file pthread.h\n-- Looking for include file pthread.h - found\n-- Looking for pthread_create\n-- Looking for pthread_create - not found\n-- Looking for pthread_create in pthreads\n-- Looking for pthread_create in pthreads - not found\n-- Looking for pthread_create in pthread\n-- Looking for pthread_create in pthread - found\n-- Found Threads: TRUE  \n-- Found gtest sources under \'/usr/src/gtest\': gtests will be built\n-- Using Python nosetests: /usr/bin/nosetests-2.7\n-- catkin 0.6.16\n-- BUILD_SHARED_LIBS is on\nWARNING: Package name "YAML_CPP" does not follow the naming conventions. It should start with a lower case letter and only contain lower case letters, digits and underscores.\nWARNING: Package "ompl" does not follow the version conventions. It should not contain leading zeros (unless the number is 0).\n-- ~~~~~~~~~~~~~~~~~~~~~~~~~~~~~~~~~~~~~~~~~~~~~~~~~\n-- ~~  traversing 3 packages in topological order:\n-- ~~  - YAML_CPP\n-- ~~  - ci_example_python\n-- ~~  - ci_example_cpp\n-- ~~~~~~~~~~~~~~~~~~~~~~~~~~~~~~~~~~~~~~~~~~~~~~~~~\n-- +++ processing catkin package: \'YAML_CPP\'\n-- ==> add_subdirectory(catkin/third_party/YAML_CPP)\nWARNING: Package name "YAML_CPP" does not follow the naming conventions. It should start with a lower case letter and only contain lower case letters, digits and underscores.\n-- Boost version: 1.54.0\n-- Performing Test FLAG_WEXTRA\n-- Performing Test FLAG_WEXTRA - Success\n-- +++ processing catkin package: \'ci_example_python\'\n-- ==> add_subdirectory(catkin/examples/ci_example/ci_example_python)\nCMake Error at /opt/ros/indigo/share/catkin/cmake/catkin_python_setup.cmake:96 (message):\n  The package name \'ci_example\' differs from the basename of the path \'src\'\n  in project \'ci_example_python\'\nCall Stack (most recent call first):\n  catkin/examples/ci_example/ci_example_python/CMakeLists.txt:16 (catkin_python_setup)\n\n\n-- Configuring incomplete, errors occurred!\nSee also "/home/amd_clmc/team/workspace/build/CMakeFiles/CMakeOutput.log".\nSee also "/home/amd_clmc/team/workspace/build/CMakeFiles/CMakeError.log".\nBase path: /home/amd_clmc/team/workspace\nSource space: /home/amd_clmc/team/workspace/src\nBuild space: /home/amd_clmc/team/workspace/build\nDevel space: /home/amd_clmc/team/workspace/devel\nInstall space: /home/amd_clmc/team/workspace/install\nCreating symlink "/home/amd_clmc/team/workspace/src/CMakeLists.txt" pointing to "/opt/ros/indigo/share/catkin/cmake/toplevel.cmake"\n####\n#### Running command: "cmake /home/amd_clmc/team/workspace/src -DCATKIN_DEVEL_PREFIX=/home/amd_clmc/team/workspace/devel -DCMAKE_INSTALL_PREFIX=/home/amd_clmc/team/workspace/install -G Unix Makefiles" in "/home/amd_clmc/team/workspace/build"\n####\nInvoking "cmake" failed\n'
p18
sS'id'
p19
S'project_139690716828160'
p20
sS'build_success'
p21
I00
sbasb.