(iac.cc.results
Projects
p0
(dp1
S'job_name'
p2
S'hytestbed_linear_states'
p3
sS'projects'
p4
(lp5
(iac.cc.results
Project
p6
(dp7
S'branches'
p8
(dp9
S'hytestbed'
p10
S'linear_states'
p11
sS'hytestbedUser'
p12
S'linear_states'
p13
ssS'name'
p14
S'HYTESTBED'
p15
sS'trace'
p16
S''
p17
sS'testing_error'
p18
g17
sS'catkin_packages'
p19
(lp20
sS'build_message'
p21
S'COMMAND:catkin_make -j install\n------------------------------\n-- The C compiler identification is GNU\n-- The CXX compiler identification is GNU\n-- Check for working C compiler: /usr/bin/gcc\n-- Check for working C compiler: /usr/bin/gcc -- works\n-- Detecting C compiler ABI info\n-- Detecting C compiler ABI info - done\n-- Check for working CXX compiler: /usr/bin/c++\n-- Check for working CXX compiler: /usr/bin/c++ -- works\n-- Detecting CXX compiler ABI info\n-- Detecting CXX compiler ABI info - done\n-- Using CATKIN_DEVEL_PREFIX: /home/amd_clmc/team/workspace/devel\n-- Using CMAKE_PREFIX_PATH: /opt/ros/groovy\n-- This workspace overlays: /opt/ros/groovy\n-- Found PythonInterp: /usr/bin/python (found version "2.7.3")\n-- Using PYTHON_EXECUTABLE: /usr/bin/python\n-- Python version: 2.7\n-- Using Debian Python package layout\n-- Using CATKIN_ENABLE_TESTING: ON\n-- Call enable_testing()\n-- Using CATKIN_TEST_RESULTS_DIR: /home/amd_clmc/team/workspace/build/test_results\n-- Looking for include files CMAKE_HAVE_PTHREAD_H\n-- Looking for include files CMAKE_HAVE_PTHREAD_H - found\n-- Looking for pthread_create in pthreads\n-- Looking for pthread_create in pthreads - not found\n-- Looking for pthread_create in pthread\n-- Looking for pthread_create in pthread - found\n-- Found Threads: TRUE \n-- Found gtest sources under \'/usr/src/gtest\': gtests will be built\n-- catkin 0.5.89\n-- BUILD_SHARED_LIBS is on\n-- ~~~~~~~~~~~~~~~~~~~~~~~~~~~~~~~~~~~~~~~~~~~~~~~~~\n-- ~~  traversing 8 packages in topological order:\n-- ~~  - utilities\n-- ~~  - lwpr\n-- ~~  - xenomai_ros\n-- ~~  - ati_ft_sensor\n-- ~~  - sl\n-- ~~  - hermes_communication_tools\n-- ~~  - hytestbed\n-- ~~  - hytestbeduser\n-- ~~~~~~~~~~~~~~~~~~~~~~~~~~~~~~~~~~~~~~~~~~~~~~~~~\n-- +++ processing catkin package: \'utilities\'\n-- ==> add_subdirectory(catkin/core-sl/catkin-utilities)\n-- MACHTYPE x86_64\nDetected MACHTYPE=x86_64\nCMake Warning at cmake/sl_cmake_global/LAB.cmake:180 (message):\n  HERMES HOSTS SET TO ATHENA-ROBOT IN SRC/CMAKE/SL_CMAKE_GLOBAL/LAB.CMAKE\nCall Stack (most recent call first):\n  catkin/core-sl/catkin-utilities/CMakeLists.txt:8 (include)\n\n\n-- HOST_NAME=amd_clmc_12_04_ci\n-- HOST=amd_clmc_12_04_ci\n-- LAB=AMD\n-- CMAKE_C_FLAGS=-Wall -Wno-unused -Wno-strict-aliasing \n-- CMAKE_CPP_FLAGS=-Wall -Wno-unused -Wno-strict-aliasing \n-- CMAKE_INCLUDE_PATH=\n-- CMAKE_LIBRARY_PATH=\n-- LAB_STD_LIBS=pthread;rt;edit;curses;nsl;glut;GL;GLU;X11;Xmu;m\n-- LAB_LIBDIR=lib/x86_64\n-- LAB_INCLUDES=include\n-- LAB_BINDIR=bin/x86_64\n-- +++ processing catkin package: \'lwpr\'\n-- ==> add_subdirectory(catkin/core-sl/catkin-lwpr)\n-- MACHTYPE x86_64\nDetected MACHTYPE=x86_64\nCMake Warning at cmake/sl_cmake_global/LAB.cmake:180 (message):\n  HERMES HOSTS SET TO ATHENA-ROBOT IN SRC/CMAKE/SL_CMAKE_GLOBAL/LAB.CMAKE\nCall Stack (most recent call first):\n  catkin/core-sl/catkin-lwpr/CMakeLists.txt:5 (include)\n\n\n-- HOST_NAME=amd_clmc_12_04_ci\n-- HOST=amd_clmc_12_04_ci\n-- LAB=AMD\n-- CMAKE_C_FLAGS=-Wall -Wno-unused -Wno-strict-aliasing \n-- CMAKE_CPP_FLAGS=-Wall -Wno-unused -Wno-strict-aliasing \n-- CMAKE_INCLUDE_PATH=\n-- CMAKE_LIBRARY_PATH=\n-- LAB_STD_LIBS=pthread;rt;edit;curses;nsl;glut;GL;GLU;X11;Xmu;m\n-- LAB_LIBDIR=lib/x86_64\n-- LAB_INCLUDES=include\n-- LAB_BINDIR=bin/x86_64\n-- +++ processing catkin package: \'xenomai_ros\'\n-- ==> add_subdirectory(catkin/ros/xenomai-ros)\n-- +++ processing catkin package: \'ati_ft_sensor\'\n-- ==> add_subdirectory(catkin/humanoids/humanoid_hardware/ati_ft_sensor)\n-- xenomai NOT found. (/usr/local;/usr)\n-- Could NOT find Xenomai (missing:  Xenomai_ROOT_DIR Xenomai_LIBRARY_NATIVE Xenomai_LIBRARY_XENOMAI Xenomai_LIBRARY_PTHREAD_RT Xenomai_LIBRARY_RTDM Xenomai_VERSION Xenomai_LIBRARY_RTDK) \n-- Boost version: 1.46.1\n-- Found the following Boost libraries:\n--   system\n--   filesystem\n--   thread\n-- Found Doxygen: /usr/bin/doxygen \n-- +++ processing catkin package: \'sl\'\n-- ==> add_subdirectory(catkin/core-sl/catkin-sl)\n-- MACHTYPE x86_64\nDetected MACHTYPE=x86_64\nCMake Warning at cmake/sl_cmake_global/LAB.cmake:180 (message):\n  HERMES HOSTS SET TO ATHENA-ROBOT IN SRC/CMAKE/SL_CMAKE_GLOBAL/LAB.CMAKE\nCall Stack (most recent call first):\n  catkin/core-sl/catkin-sl/CMakeLists.txt:8 (include)\n\n\n-- HOST_NAME=amd_clmc_12_04_ci\n-- HOST=amd_clmc_12_04_ci\n-- LAB=AMD\n-- CMAKE_C_FLAGS=-Wall -Wno-unused -Wno-strict-aliasing \n-- CMAKE_CPP_FLAGS=-Wall -Wno-unused -Wno-strict-aliasing \n-- CMAKE_INCLUDE_PATH=\n-- CMAKE_LIBRARY_PATH=\n-- LAB_STD_LIBS=pthread;rt;edit;curses;nsl;glut;GL;GLU;X11;Xmu;m\n-- LAB_LIBDIR=lib/x86_64\n-- LAB_INCLUDES=include\n-- LAB_BINDIR=bin/x86_64\n-- +++ processing catkin package: \'hermes_communication_tools\'\n-- ==> add_subdirectory(catkin/humanoids/humanoid_hardware/cb_communication)\nCMake Error at /opt/ros/groovy/share/catkin/cmake/catkinConfig.cmake:75 (find_package):\n  Could not find a configuration file for package sl_config.\n\n  Set sl_config_DIR to the directory containing a CMake configuration file\n  for sl_config.  The file will have one of the following names:\n\n    sl_configConfig.cmake\n    sl_config-config.cmake\n\nCall Stack (most recent call first):\n  catkin/humanoids/humanoid_hardware/cb_communication/CMakeLists.txt:10 (find_package)\n\n\n-- xenomai NOT found. (/usr/local;/usr)\n-- Could NOT find Xenomai (missing:  Xenomai_ROOT_DIR Xenomai_LIBRARY_NATIVE Xenomai_LIBRARY_XENOMAI Xenomai_LIBRARY_PTHREAD_RT Xenomai_LIBRARY_RTDM Xenomai_VERSION Xenomai_LIBRARY_RTDK) \n-- checking for module \'eigen3\'\n--   found eigen3, version 3.0.5\n-- Found Eigen: /usr/include/eigen3 \n-- Eigen found (include: /usr/include/eigen3)\nCMake Error at catkin/humanoids/humanoid_hardware/cb_communication/CMakeLists.txt:27 (sl_package):\n  Unknown CMake command "sl_package".\n\n\n-- Configuring incomplete, errors occurred!\nBase path: /home/amd_clmc/team/workspace\nSource space: /home/amd_clmc/team/workspace/src\nBuild space: /home/amd_clmc/team/workspace/build\nDevel space: /home/amd_clmc/team/workspace/devel\nInstall space: /home/amd_clmc/team/workspace/install\nCreating symlink "/home/amd_clmc/team/workspace/src/CMakeLists.txt" pointing to "/opt/ros/groovy/share/catkin/cmake/toplevel.cmake"\n####\n#### Running command: "cmake /home/amd_clmc/team/workspace/src -DCATKIN_DEVEL_PREFIX=/home/amd_clmc/team/workspace/devel -DCMAKE_INSTALL_PREFIX=/home/amd_clmc/team/workspace/install" in "/home/amd_clmc/team/workspace/build"\n####\nInvoking "cmake" failed\n'
p22
sS'id'
p23
S'project_39433064'
p24
sS'build_success'
p25
I00
sbasb.