(iac.cc.results
Projects
p0
(dp1
S'job_name'
p2
S'locomotion_development'
p3
sS'projects'
p4
(lp5
(iac.cc.results
Project
p6
(dp7
S'branches'
p8
(dp9
S'athenaUser'
p10
S'development'
p11
sS'hermesFull'
p12
g11
sS'humanoid_control'
p13
g11
sS'hermesFullUser'
p14
g11
sS'hermesLowerUser'
p15
g11
sS'hermesCore'
p16
g11
sS'humanoid_hardware'
p17
g11
sS'hermesLower'
p18
g11
sS'athena'
p19
g11
ssS'name'
p20
S'LOCOMOTION'
p21
sS'trace'
p22
S''
p23
sS'testing_error'
p24
g23
sS'catkin_packages'
p25
(lp26
sS'build_message'
p27
S'COMMAND:catkin_make -j install\n------------------------------\nWARNING: Package name "Eigen" does not follow the naming conventions. It should start with a lower case letter and only contain lower case letters, digits and underscores.\nWARNING: Package name "YAML_CPP" does not follow the naming conventions. It should start with a lower case letter and only contain lower case letters, digits and underscores.\nWARNING: Package name "footsteps_planner_MIQCQP" does not follow the naming conventions. It should start with a lower case letter and only contain lower case letters, digits and underscores.\nWARNING: Package name "footsteps_planner_MIQCQP_sl" does not follow the naming conventions. It should start with a lower case letter and only contain lower case letters, digits and underscores.\n-- The C compiler identification is GNU 4.8.4\n-- The CXX compiler identification is GNU 4.8.4\n-- Check for working C compiler: /usr/bin/cc\n-- Check for working C compiler: /usr/bin/cc -- works\n-- Detecting C compiler ABI info\n-- Detecting C compiler ABI info - done\n-- Check for working CXX compiler: /usr/bin/c++\n-- Check for working CXX compiler: /usr/bin/c++ -- works\n-- Detecting CXX compiler ABI info\n-- Detecting CXX compiler ABI info - done\n-- Using CATKIN_DEVEL_PREFIX: /home/amd_clmc/team/workspace/devel\n-- Using CMAKE_PREFIX_PATH: /opt/ros/indigo\n-- This workspace overlays: /opt/ros/indigo\n-- Found PythonInterp: /usr/bin/python (found version "2.7.6") \n-- Using PYTHON_EXECUTABLE: /usr/bin/python\n-- Python version: 2.7\n-- Using Debian Python package layout\n-- Using CATKIN_ENABLE_TESTING: ON\n-- Call enable_testing()\n-- Using CATKIN_TEST_RESULTS_DIR: /home/amd_clmc/team/workspace/build/test_results\n-- Looking for include file pthread.h\n-- Looking for include file pthread.h - found\n-- Looking for pthread_create\n-- Looking for pthread_create - not found\n-- Looking for pthread_create in pthreads\n-- Looking for pthread_create in pthreads - not found\n-- Looking for pthread_create in pthread\n-- Looking for pthread_create in pthread - found\n-- Found Threads: TRUE  \n-- Found gtest sources under \'/usr/src/gtest\': gtests will be built\n-- catkin 0.5.90\n-- BUILD_SHARED_LIBS is on\nWARNING: Package name "Eigen" does not follow the naming conventions. It should start with a lower case letter and only contain lower case letters, digits and underscores.\nWARNING: Package name "YAML_CPP" does not follow the naming conventions. It should start with a lower case letter and only contain lower case letters, digits and underscores.\nWARNING: Package name "footsteps_planner_MIQCQP" does not follow the naming conventions. It should start with a lower case letter and only contain lower case letters, digits and underscores.\nWARNING: Package name "footsteps_planner_MIQCQP_sl" does not follow the naming conventions. It should start with a lower case letter and only contain lower case letters, digits and underscores.\nWARNING: Package "ompl" does not follow the version conventions. It should not contain leading zeros (unless the number is 0).\n-- ~~~~~~~~~~~~~~~~~~~~~~~~~~~~~~~~~~~~~~~~~~~~~~~~~\n-- ~~  traversing 49 packages in topological order:\n-- ~~  - Eigen\n-- ~~  - YAML_CPP\n-- ~~  - kalman_filters\n-- ~~  - py_cpp_interface\n-- ~~  - robot_math\n-- ~~  - robot_properties_athena\n-- ~~  - robot_properties_hermes_full\n-- ~~  - robot_properties_hermes_lower\n-- ~~  - sl_config\n-- ~~  - snopt_cpp\n-- ~~  - utilities\n-- ~~  - io_tools\n-- ~~  - floating_base_tools_athena\n-- ~~  - floating_base_tools_hermes_full\n-- ~~  - floating_base_tools_hermes_lower\n-- ~~  - lwpr\n-- ~~  - standard_filters\n-- ~~  - xenomai_ros\n-- ~~  - ati_ft_sensor\n-- ~~  - sl\n-- ~~  - hermes_communication_tools\n-- ~~  - hermes_core\n-- ~~  - athena\n-- ~~  - hermes_full\n-- ~~  - hermes_lower\n-- ~~  - io_tools_sl\n-- ~~  - floating_base_tools_sl_athena\n-- ~~  - biped_locomotion_athena\n-- ~~  - floating_base_tools_sl_hermes_full\n-- ~~  - biped_locomotion_hermes_full\n-- ~~  - floating_base_tools_sl_hermes_lower\n-- ~~  - biped_locomotion_hermes_lower\n-- ~~  - base_state_estimators_hermes_lower\n-- ~~  - footsteps_planner_MIQCQP\n-- ~~  - footsteps_planner_MIQCQP_sl\n-- ~~  - joint_state_estimators_hermes_lower\n-- ~~  - lqr_hermes_lower\n-- ~~  - testing_tests\n-- ~~  - visualization_tools_athena\n-- ~~  - humanoid_tests_athena\n-- ~~  - athena_user\n-- ~~  - visualization_tools_hermes_full\n-- ~~  - hermes_full_user\n-- ~~  - visualization_tools_hermes_lower\n-- ~~  - humanoid_tests_hermes_lower\n-- ~~  - walking_tools_hermes_lower\n-- ~~  - example_tasks_hermes_lower\n-- ~~  - julia_sl_interface_hermes_lower\n-- ~~  - hermes_lower_user\n-- ~~~~~~~~~~~~~~~~~~~~~~~~~~~~~~~~~~~~~~~~~~~~~~~~~\n-- +++ processing catkin package: \'Eigen\'\n-- ==> add_subdirectory(catkin/third_party/Eigen)\nWARNING: Package name "Eigen" does not follow the naming conventions. It should start with a lower case letter and only contain lower case letters, digits and underscores.\n-- +++ processing catkin package: \'YAML_CPP\'\n-- ==> add_subdirectory(catkin/third_party/YAML_CPP)\nWARNING: Package name "YAML_CPP" does not follow the naming conventions. It should start with a lower case letter and only contain lower case letters, digits and underscores.\n-- Boost version: 1.54.0\n-- Performing Test FLAG_WEXTRA\n-- Performing Test FLAG_WEXTRA - Success\n-- +++ processing catkin package: \'kalman_filters\'\n-- ==> add_subdirectory(catkin/humanoids/humanoid_control/filtering_tools/kalman_filters)\n-- +++ processing catkin package: \'py_cpp_interface\'\n-- ==> add_subdirectory(catkin/humanoids/humanoid_control/py_cpp_interface)\n-- Boost version: 1.54.0\n-- Found the following Boost libraries:\n--   system\n--   thread\n--   python\n-- PYTHON_BIN_LOCATION: /usr/bin/python\n\n-- Found PythonLibs: /usr/lib/x86_64-linux-gnu/libpython2.7.so \n-- Found NumPy: version "1.8.2" /usr/lib/python2.7/dist-packages/numpy/core/include\n-- +++ processing catkin package: \'robot_math\'\n-- ==> add_subdirectory(catkin/humanoids/humanoid_control/robot_math)\n-- +++ processing catkin package: \'robot_properties_athena\'\n-- ==> add_subdirectory(catkin/humanoids/humanoid_control/robot_properties/robot_properties_athena)\n-- +++ processing catkin package: \'robot_properties_hermes_full\'\n-- ==> add_subdirectory(catkin/humanoids/humanoid_control/robot_properties/robot_properties_hermes_full)\n-- +++ processing catkin package: \'robot_properties_hermes_lower\'\n-- ==> add_subdirectory(catkin/humanoids/humanoid_control/robot_properties/robot_properties_hermes_lower)\n-- +++ processing catkin package: \'sl_config\'\n-- ==> add_subdirectory(catkin/core-sl/sl_config)\n-- MACHTYPE=x86_64\n-- +++ processing catkin package: \'snopt_cpp\'\n-- ==> add_subdirectory(catkin/third_party/snopt_cpp)\n-- +++ processing catkin package: \'utilities\'\n-- ==> add_subdirectory(catkin/core-sl/locomotion-utilities)\n-- MACHTYPE=x86_64\n-- +++ processing catkin package: \'io_tools\'\n-- ==> add_subdirectory(catkin/humanoids/humanoid_control/io_tools)\n-- +++ processing catkin package: \'floating_base_tools_athena\'\n-- ==> add_subdirectory(catkin/humanoids/humanoid_control/floating_base_tools_common/floating_base_tools_athena)\n-- +++ processing catkin package: \'floating_base_tools_hermes_full\'\n-- ==> add_subdirectory(catkin/humanoids/humanoid_control/floating_base_tools_common/floating_base_tools_hermes_full)\n-- +++ processing catkin package: \'floating_base_tools_hermes_lower\'\n-- ==> add_subdirectory(catkin/humanoids/humanoid_control/floating_base_tools_common/floating_base_tools_hermes_lower)\n-- +++ processing catkin package: \'lwpr\'\n-- ==> add_subdirectory(catkin/core-sl/locomotion-lwpr)\n-- MACHTYPE=x86_64\n-- +++ processing catkin package: \'standard_filters\'\n-- ==> add_subdirectory(catkin/humanoids/humanoid_control/filtering_tools/standard_filters)\n-- +++ processing catkin package: \'xenomai_ros\'\n-- ==> add_subdirectory(catkin/ros/xenomai-ros)\n-- +++ processing catkin package: \'ati_ft_sensor\'\n-- ==> add_subdirectory(catkin/humanoids/humanoid_hardware/ati_ft_sensor)\n-- xenomai NOT found. (/usr/local;/usr)\n-- Could NOT find Xenomai (missing:  Xenomai_ROOT_DIR Xenomai_LIBRARY_NATIVE Xenomai_LIBRARY_XENOMAI Xenomai_LIBRARY_PTHREAD_RT Xenomai_LIBRARY_RTDM Xenomai_VERSION Xenomai_LIBRARY_RTDK) \n-- Boost version: 1.54.0\n-- Found the following Boost libraries:\n--   system\n--   filesystem\n--   thread\n-- Found Doxygen: /usr/bin/doxygen (found version "1.8.6") \n-- +++ processing catkin package: \'sl\'\n-- ==> add_subdirectory(catkin/core-sl/locomotion-sl)\n-- MACHTYPE=x86_64\n-- Found PkgConfig: /usr/bin/pkg-config (found version "0.26") \n-- checking for module \'libedit\'\n--   found libedit, version 3.1\n-- Found libedit: /usr/lib/x86_64-linux-gnu/libedit.so\n-- Looking for XOpenDisplay in /usr/lib/x86_64-linux-gnu/libX11.so;/usr/lib/x86_64-linux-gnu/libXext.so\n-- Looking for XOpenDisplay in /usr/lib/x86_64-linux-gnu/libX11.so;/usr/lib/x86_64-linux-gnu/libXext.so - found\n-- Looking for gethostbyname\n-- Looking for gethostbyname - found\n-- Looking for connect\n-- Looking for connect - found\n-- Looking for remove\n-- Looking for remove - found\n-- Looking for shmat\n-- Looking for shmat - found\n-- Looking for IceConnectionNumber in ICE\n-- Looking for IceConnectionNumber in ICE - found\n-- Found X11: /usr/lib/x86_64-linux-gnu/libX11.so\n-- Found OpenGL: /usr/lib/x86_64-linux-gnu/libGL.so  \n-- Found GLUT: /usr/lib/x86_64-linux-gnu/libglut.so  \n-- Found LibRt: /usr/lib/x86_64-linux-gnu/librt.so  \n-- GLUT_LIBRARIES=/usr/lib/x86_64-linux-gnu/libglut.so;/usr/lib/x86_64-linux-gnu/libXmu.so;/usr/lib/x86_64-linux-gnu/libXi.so\n-- GLUT_INCLUDE_DIR=/usr/include\n-- GLUT_FOUND: TRUE\n-- Libedit_INCLUDE_DIRS=/usr/include\n-- Libedit_LIBRARIES=/usr/lib/x86_64-linux-gnu/libedit.so\n-- xenomai NOT found. (/usr/local;/usr)\n-- Could NOT find Xenomai (missing:  Xenomai_ROOT_DIR Xenomai_LIBRARY_NATIVE Xenomai_LIBRARY_XENOMAI Xenomai_LIBRARY_PTHREAD_RT Xenomai_LIBRARY_RTDM Xenomai_VERSION Xenomai_LIBRARY_RTDK) \n-- SLros dependencies found; compiling ROS servo.\n-- +++ processing catkin package: \'hermes_communication_tools\'\n-- ==> add_subdirectory(catkin/humanoids/humanoid_hardware/cb_communication)\n-- MACHTYPE=x86_64\n-- xenomai NOT found. (/usr/local;/usr)\n-- Could NOT find Xenomai (missing:  Xenomai_ROOT_DIR Xenomai_LIBRARY_NATIVE Xenomai_LIBRARY_XENOMAI Xenomai_LIBRARY_PTHREAD_RT Xenomai_LIBRARY_RTDM Xenomai_VERSION Xenomai_LIBRARY_RTDK) \n-- Boost version: 1.54.0\n-- Found the following Boost libraries:\n--   system\n--   filesystem\n--   thread\n-- +++ processing catkin package: \'hermes_core\'\n-- ==> add_subdirectory(catkin/robots/hermesCore)\n-- +++ processing catkin package: \'athena\'\n-- ==> add_subdirectory(catkin/robots/athena)\n-- MACHTYPE=x86_64\n-- Boost version: 1.54.0\n-- Found the following Boost libraries:\n--   thread\n-- xenomai NOT found. (/usr/local;/usr)\n-- Could NOT find Xenomai (missing:  Xenomai_ROOT_DIR Xenomai_LIBRARY_NATIVE Xenomai_LIBRARY_XENOMAI Xenomai_LIBRARY_PTHREAD_RT Xenomai_LIBRARY_RTDM Xenomai_VERSION Xenomai_LIBRARY_RTDK) \n-- athena: compiling on amd_clmc_14_04_ci; simulation only.\n-- +++ processing catkin package: \'hermes_full\'\n-- ==> add_subdirectory(catkin/robots/hermesFull)\n-- MACHTYPE=x86_64\n-- Boost version: 1.54.0\n-- Found the following Boost libraries:\n--   thread\n-- xenomai NOT found. (/usr/local;/usr)\n-- Could NOT find Xenomai (missing:  Xenomai_ROOT_DIR Xenomai_LIBRARY_NATIVE Xenomai_LIBRARY_XENOMAI Xenomai_LIBRARY_PTHREAD_RT Xenomai_LIBRARY_RTDM Xenomai_VERSION Xenomai_LIBRARY_RTDK) \n-- hermes_full: compiling on amd_clmc_14_04_ci; simulation only.\n-- +++ processing catkin package: \'hermes_lower\'\n-- ==> add_subdirectory(catkin/robots/hermesLower)\n-- MACHTYPE=x86_64\n-- Boost version: 1.54.0\n-- Found the following Boost libraries:\n--   thread\n-- xenomai NOT found. (/usr/local;/usr)\n-- Could NOT find Xenomai (missing:  Xenomai_ROOT_DIR Xenomai_LIBRARY_NATIVE Xenomai_LIBRARY_XENOMAI Xenomai_LIBRARY_PTHREAD_RT Xenomai_LIBRARY_RTDM Xenomai_VERSION Xenomai_LIBRARY_RTDK) \n-- hermes_lower: compiling on amd_clmc_14_04_ci; simulation only.\n-- +++ processing catkin package: \'io_tools_sl\'\n-- ==> add_subdirectory(catkin/humanoids/humanoid_control/io_tools_sl)\n-- +++ processing catkin package: \'floating_base_tools_sl_athena\'\n-- ==> add_subdirectory(catkin/humanoids/humanoid_control/floating_base_tools_sl/floating_base_tools_sl_athena)\n-- MACHTYPE=x86_64\n-- Boost version: 1.54.0\n-- Found the following Boost libraries:\n--   thread\n--   system\n--   filesystem\n-- +++ processing catkin package: \'biped_locomotion_athena\'\n-- ==> add_subdirectory(catkin/humanoids/humanoid_control/biped_locomotion/biped_locomotion_athena)\n-- Boost version: 1.54.0\n-- Found the following Boost libraries:\n--   system\n-- xenomai NOT found. (/usr/local;/usr)\n-- Could NOT find Xenomai (missing:  Xenomai_ROOT_DIR Xenomai_LIBRARY_NATIVE Xenomai_LIBRARY_XENOMAI Xenomai_LIBRARY_PTHREAD_RT Xenomai_LIBRARY_RTDM Xenomai_VERSION Xenomai_LIBRARY_RTDK) \n-- +++ processing catkin package: \'floating_base_tools_sl_hermes_full\'\n-- ==> add_subdirectory(catkin/humanoids/humanoid_control/floating_base_tools_sl/floating_base_tools_sl_hermes_full)\n-- MACHTYPE=x86_64\n-- Boost version: 1.54.0\n-- Found the following Boost libraries:\n--   thread\n--   system\n--   filesystem\n-- +++ processing catkin package: \'biped_locomotion_hermes_full\'\n-- ==> add_subdirectory(catkin/humanoids/humanoid_control/biped_locomotion/biped_locomotion_hermes_full)\n-- Boost version: 1.54.0\n-- Found the following Boost libraries:\n--   system\n-- xenomai NOT found. (/usr/local;/usr)\n-- Could NOT find Xenomai (missing:  Xenomai_ROOT_DIR Xenomai_LIBRARY_NATIVE Xenomai_LIBRARY_XENOMAI Xenomai_LIBRARY_PTHREAD_RT Xenomai_LIBRARY_RTDM Xenomai_VERSION Xenomai_LIBRARY_RTDK) \n-- +++ processing catkin package: \'floating_base_tools_sl_hermes_lower\'\n-- ==> add_subdirectory(catkin/humanoids/humanoid_control/floating_base_tools_sl/floating_base_tools_sl_hermes_lower)\n-- MACHTYPE=x86_64\n-- Boost version: 1.54.0\n-- Found the following Boost libraries:\n--   thread\n--   system\n--   filesystem\n-- +++ processing catkin package: \'biped_locomotion_hermes_lower\'\n-- ==> add_subdirectory(catkin/humanoids/humanoid_control/biped_locomotion/biped_locomotion_hermes_lower)\n-- Boost version: 1.54.0\n-- Found the following Boost libraries:\n--   system\n-- xenomai NOT found. (/usr/local;/usr)\n-- Could NOT find Xenomai (missing:  Xenomai_ROOT_DIR Xenomai_LIBRARY_NATIVE Xenomai_LIBRARY_XENOMAI Xenomai_LIBRARY_PTHREAD_RT Xenomai_LIBRARY_RTDM Xenomai_VERSION Xenomai_LIBRARY_RTDK) \n-- +++ processing catkin package: \'base_state_estimators_hermes_lower\'\n-- ==> add_subdirectory(catkin/humanoids/humanoid_control/filtering_tools/base_state_estimators/base_state_estimators_hermes_lower)\n-- +++ processing catkin package: \'footsteps_planner_MIQCQP\'\n-- ==> add_subdirectory(catkin/humanoids/humanoid_control/contacts_planning/footsteps_planner_MIQCQP)\n-- Boost version: 1.54.0\n-- Found the following Boost libraries:\n--   system\n--   program_options\n--   filesystem\n-- +++ processing catkin package: \'footsteps_planner_MIQCQP_sl\'\n-- ==> add_subdirectory(catkin/humanoids/humanoid_control/contacts_planning_sl/footsteps_planner_MIQCQP_sl)\n-- Boost version: 1.54.0\n-- Found the following Boost libraries:\n--   system\n--   program_options\n--   filesystem\n-- +++ processing catkin package: \'joint_state_estimators_hermes_lower\'\n-- ==> add_subdirectory(catkin/humanoids/humanoid_control/filtering_tools/joint_state_estimators/joint_state_estimators_hermes_lower)\n-- xenomai NOT found. (/usr/local;/usr)\n-- Could NOT find Xenomai (missing:  Xenomai_ROOT_DIR Xenomai_LIBRARY_NATIVE Xenomai_LIBRARY_XENOMAI Xenomai_LIBRARY_PTHREAD_RT Xenomai_LIBRARY_RTDM Xenomai_VERSION Xenomai_LIBRARY_RTDK) \n-- +++ processing catkin package: \'lqr_hermes_lower\'\n-- ==> add_subdirectory(catkin/humanoids/humanoid_control/lqr/lqr_hermes_lower)\n-- xenomai NOT found. (/usr/local;/usr)\n-- Could NOT find Xenomai (missing:  Xenomai_ROOT_DIR Xenomai_LIBRARY_NATIVE Xenomai_LIBRARY_XENOMAI Xenomai_LIBRARY_PTHREAD_RT Xenomai_LIBRARY_RTDM Xenomai_VERSION Xenomai_LIBRARY_RTDK) \n-- Boost version: 1.54.0\n-- Found the following Boost libraries:\n--   system\n--   thread\n-- building lqr_hermes_lower\n-- +++ processing catkin package: \'testing_tests\'\n-- ==> add_subdirectory(catkin/humanoids/humanoid_control/testing_tests)\n-- Boost version: 1.54.0\n-- Found the following Boost libraries:\n--   thread\n--   system\n--   filesystem\n--   regex\nwarning : testing_tests package : compiling tests only for athena and hermes_lower, hermes_full ignored\n-- MACHTYPE=x86_64\nCMake Warning at catkin/humanoids/humanoid_control/testing_tests/CMakeLists.txt:36 (message):\n  building testing_tests_athena\n\n\nCMake Warning at catkin/humanoids/humanoid_control/testing_tests/CMakeLists.txt:36 (message):\n  building testing_tests_hermes_lower\n\n\n-- +++ processing catkin package: \'visualization_tools_athena\'\n-- ==> add_subdirectory(catkin/humanoids/humanoid_control/visualization_tools/visualization_tools_athena)\n-- MACHTYPE=x86_64\n-- Boost version: 1.54.0\n-- Found the following Boost libraries:\n--   thread\n--   system\n--   filesystem\n-- Found ZLIB: /usr/lib/x86_64-linux-gnu/libz.so (found version "1.2.8") \n-- Found PNG: /usr/lib/x86_64-linux-gnu/libpng.so (found version "1.2.50") \n-- +++ processing catkin package: \'humanoid_tests_athena\'\n-- ==> add_subdirectory(catkin/humanoids/humanoid_control/humanoid_tests/humanoid_tests_athena)\nwarning : testing_tests package : compiling tests only for athena and hermes_lower, hermes_full ignored\n-- MACHTYPE=x86_64\n-- Boost version: 1.54.0\n-- Found the following Boost libraries:\n--   thread\n--   system\n--   filesystem\n--   regex\nCMake Warning at catkin/humanoids/humanoid_control/humanoid_tests/template/CMakeLists.txt:65 (message):\n  building humanoid_tests_athena\nCall Stack (most recent call first):\n  catkin/humanoids/humanoid_control/humanoid_tests/humanoid_tests_athena/CMakeLists.txt:2 (include)\n\n\n-- +++ processing catkin package: \'athena_user\'\n-- ==> add_subdirectory(catkin/robots/athenaUser)\n-- MACHTYPE=x86_64\nwarning : testing_tests package : compiling tests only for athena and hermes_lower, hermes_full ignored\n-- Boost version: 1.54.0\n-- Found the following Boost libraries:\n--   regex\n--   filesystem\n--   system\n--   thread\n-- xenomai NOT found. (/usr/local;/usr)\n-- Could NOT find Xenomai (missing:  Xenomai_ROOT_DIR Xenomai_LIBRARY_NATIVE Xenomai_LIBRARY_XENOMAI Xenomai_LIBRARY_PTHREAD_RT Xenomai_LIBRARY_RTDM Xenomai_VERSION Xenomai_LIBRARY_RTDK) \n-- +++ processing catkin package: \'visualization_tools_hermes_full\'\n-- ==> add_subdirectory(catkin/humanoids/humanoid_control/visualization_tools/visualization_tools_hermes_full)\n-- MACHTYPE=x86_64\n-- Boost version: 1.54.0\n-- Found the following Boost libraries:\n--   thread\n--   system\n--   filesystem\n-- +++ processing catkin package: \'hermes_full_user\'\n-- ==> add_subdirectory(catkin/robots/hermesFullUser)\n-- MACHTYPE=x86_64\n-- Boost version: 1.54.0\n-- Found the following Boost libraries:\n--   regex\n--   filesystem\n--   system\n--   thread\n-- xenomai NOT found. (/usr/local;/usr)\n-- Could NOT find Xenomai (missing:  Xenomai_ROOT_DIR Xenomai_LIBRARY_NATIVE Xenomai_LIBRARY_XENOMAI Xenomai_LIBRARY_PTHREAD_RT Xenomai_LIBRARY_RTDM Xenomai_VERSION Xenomai_LIBRARY_RTDK) \n-- +++ processing catkin package: \'visualization_tools_hermes_lower\'\n-- ==> add_subdirectory(catkin/humanoids/humanoid_control/visualization_tools/visualization_tools_hermes_lower)\n-- MACHTYPE=x86_64\n-- Boost version: 1.54.0\n-- Found the following Boost libraries:\n--   thread\n--   system\n--   filesystem\n-- +++ processing catkin package: \'humanoid_tests_hermes_lower\'\n-- ==> add_subdirectory(catkin/humanoids/humanoid_control/humanoid_tests/humanoid_tests_hermes_lower)\nwarning : testing_tests package : compiling tests only for athena and hermes_lower, hermes_full ignored\n-- MACHTYPE=x86_64\n-- Boost version: 1.54.0\n-- Found the following Boost libraries:\n--   thread\n--   system\n--   filesystem\n--   regex\nCMake Warning at catkin/humanoids/humanoid_control/humanoid_tests/template/CMakeLists.txt:65 (message):\n  building humanoid_tests_hermes_lower\nCall Stack (most recent call first):\n  catkin/humanoids/humanoid_control/humanoid_tests/humanoid_tests_hermes_lower/CMakeLists.txt:2 (include)\n\n\n-- +++ processing catkin package: \'walking_tools_hermes_lower\'\n-- ==> add_subdirectory(catkin/humanoids/humanoid_control/walking_tools/walking_tools_hermes_lower)\nCMake Error at catkin/humanoids/humanoid_control/walking_tools/template/CMakeLists.txt:43 (message):\n  LIBSLICOT NOT FOUND\nCall Stack (most recent call first):\n  catkin/humanoids/humanoid_control/walking_tools/walking_tools_hermes_lower/CMakeLists.txt:2 (include)\n\n\n-- Configuring incomplete, errors occurred!\nSee also "/home/amd_clmc/team/workspace/build/CMakeFiles/CMakeOutput.log".\nSee also "/home/amd_clmc/team/workspace/build/CMakeFiles/CMakeError.log".\nBase path: /home/amd_clmc/team/workspace\nSource space: /home/amd_clmc/team/workspace/src\nBuild space: /home/amd_clmc/team/workspace/build\nDevel space: /home/amd_clmc/team/workspace/devel\nInstall space: /home/amd_clmc/team/workspace/install\nCreating symlink "/home/amd_clmc/team/workspace/src/CMakeLists.txt" pointing to "/opt/ros/indigo/share/catkin/cmake/toplevel.cmake"\n####\n#### Running command: "cmake /home/amd_clmc/team/workspace/src -DCATKIN_DEVEL_PREFIX=/home/amd_clmc/team/workspace/devel -DCMAKE_INSTALL_PREFIX=/home/amd_clmc/team/workspace/install -G Unix Makefiles" in "/home/amd_clmc/team/workspace/build"\n####\nInvoking "cmake" failed\n'
p28
sS'id'
p29
S'project_140523717767040'
p30
sS'build_success'
p31
I00
sbasb.